ARM GAS  C:\Users\DJSCE~1.STU\AppData\Local\Temp\ccH541Pm.s 			page 1


   1              		.cpu cortex-m0
   2              		.fpu softvfp
   3              		.eabi_attribute 20, 1
   4              		.eabi_attribute 21, 1
   5              		.eabi_attribute 23, 3
   6              		.eabi_attribute 24, 1
   7              		.eabi_attribute 25, 1
   8              		.eabi_attribute 26, 1
   9              		.eabi_attribute 30, 1
  10              		.eabi_attribute 34, 0
  11              		.eabi_attribute 18, 4
  12              		.code	16
  13              		.file	"cyfitter_cfg.c"
  14              		.text
  15              	.Ltext0:
  16              		.cfi_sections	.debug_frame
  17              		.section	.text.cfg_write_bytes32,"ax",%progbits
  18              		.align	2
  19              		.code	16
  20              		.thumb_func
  21              		.type	cfg_write_bytes32, %function
  22              	cfg_write_bytes32:
  23              	.LFB3:
  24              		.file 1 ".\\Generated_Source\\PSoC4\\cyfitter_cfg.c"
   1:.\Generated_Source\PSoC4/cyfitter_cfg.c **** /*******************************************************************************
   2:.\Generated_Source\PSoC4/cyfitter_cfg.c **** * FILENAME: cyfitter_cfg.c
   3:.\Generated_Source\PSoC4/cyfitter_cfg.c **** * 
   4:.\Generated_Source\PSoC4/cyfitter_cfg.c **** * PSoC Creator  3.2
   5:.\Generated_Source\PSoC4/cyfitter_cfg.c **** *
   6:.\Generated_Source\PSoC4/cyfitter_cfg.c **** * DESCRIPTION:
   7:.\Generated_Source\PSoC4/cyfitter_cfg.c **** * This file contains device initialization code.
   8:.\Generated_Source\PSoC4/cyfitter_cfg.c **** * Except for the user defined sections in CyClockStartupError(), this file should not be modified.
   9:.\Generated_Source\PSoC4/cyfitter_cfg.c **** * This file is automatically generated by PSoC Creator.
  10:.\Generated_Source\PSoC4/cyfitter_cfg.c **** *
  11:.\Generated_Source\PSoC4/cyfitter_cfg.c **** ********************************************************************************
  12:.\Generated_Source\PSoC4/cyfitter_cfg.c **** * Copyright (c) 2007-2015 Cypress Semiconductor.  All rights reserved.
  13:.\Generated_Source\PSoC4/cyfitter_cfg.c **** * You may use this file only in accordance with the license, terms, conditions, 
  14:.\Generated_Source\PSoC4/cyfitter_cfg.c **** * disclaimers, and limitations in the end user license agreement accompanying 
  15:.\Generated_Source\PSoC4/cyfitter_cfg.c **** * the software package with which this file was provided.
  16:.\Generated_Source\PSoC4/cyfitter_cfg.c **** ********************************************************************************/
  17:.\Generated_Source\PSoC4/cyfitter_cfg.c **** 
  18:.\Generated_Source\PSoC4/cyfitter_cfg.c **** #include <string.h>
  19:.\Generated_Source\PSoC4/cyfitter_cfg.c **** #include "cytypes.h"
  20:.\Generated_Source\PSoC4/cyfitter_cfg.c **** #include "cydevice_trm.h"
  21:.\Generated_Source\PSoC4/cyfitter_cfg.c **** #include "cyfitter.h"
  22:.\Generated_Source\PSoC4/cyfitter_cfg.c **** #include "CyLib.h"
  23:.\Generated_Source\PSoC4/cyfitter_cfg.c **** #include "CyLFClk.h"
  24:.\Generated_Source\PSoC4/cyfitter_cfg.c **** #include "cyfitter_cfg.h"
  25:.\Generated_Source\PSoC4/cyfitter_cfg.c **** 
  26:.\Generated_Source\PSoC4/cyfitter_cfg.c **** 
  27:.\Generated_Source\PSoC4/cyfitter_cfg.c **** #if defined(__GNUC__) || defined(__ARMCC_VERSION)
  28:.\Generated_Source\PSoC4/cyfitter_cfg.c ****     #define CYPACKED 
  29:.\Generated_Source\PSoC4/cyfitter_cfg.c ****     #define CYPACKED_ATTR __attribute__ ((packed))
  30:.\Generated_Source\PSoC4/cyfitter_cfg.c ****     #define CYALIGNED __attribute__ ((aligned))
  31:.\Generated_Source\PSoC4/cyfitter_cfg.c ****     #define CY_CFG_UNUSED __attribute__ ((unused))
  32:.\Generated_Source\PSoC4/cyfitter_cfg.c ****     #define CY_CFG_SECTION __attribute__ ((section(".psocinit")))
  33:.\Generated_Source\PSoC4/cyfitter_cfg.c ****     
ARM GAS  C:\Users\DJSCE~1.STU\AppData\Local\Temp\ccH541Pm.s 			page 2


  34:.\Generated_Source\PSoC4/cyfitter_cfg.c ****     #if defined(__ARMCC_VERSION)
  35:.\Generated_Source\PSoC4/cyfitter_cfg.c ****         #define CY_CFG_MEMORY_BARRIER() __memory_changed()
  36:.\Generated_Source\PSoC4/cyfitter_cfg.c ****     #else
  37:.\Generated_Source\PSoC4/cyfitter_cfg.c ****         #define CY_CFG_MEMORY_BARRIER() __sync_synchronize()
  38:.\Generated_Source\PSoC4/cyfitter_cfg.c ****     #endif
  39:.\Generated_Source\PSoC4/cyfitter_cfg.c ****     
  40:.\Generated_Source\PSoC4/cyfitter_cfg.c **** #elif defined(__ICCARM__)
  41:.\Generated_Source\PSoC4/cyfitter_cfg.c ****     #include <intrinsics.h>
  42:.\Generated_Source\PSoC4/cyfitter_cfg.c **** 
  43:.\Generated_Source\PSoC4/cyfitter_cfg.c ****     #define CYPACKED __packed
  44:.\Generated_Source\PSoC4/cyfitter_cfg.c ****     #define CYPACKED_ATTR 
  45:.\Generated_Source\PSoC4/cyfitter_cfg.c ****     #define CYALIGNED _Pragma("data_alignment=4")
  46:.\Generated_Source\PSoC4/cyfitter_cfg.c ****     #define CY_CFG_UNUSED _Pragma("diag_suppress=Pe177")
  47:.\Generated_Source\PSoC4/cyfitter_cfg.c ****     #define CY_CFG_SECTION _Pragma("location=\".psocinit\"")
  48:.\Generated_Source\PSoC4/cyfitter_cfg.c ****     
  49:.\Generated_Source\PSoC4/cyfitter_cfg.c ****     #define CY_CFG_MEMORY_BARRIER() __DMB()
  50:.\Generated_Source\PSoC4/cyfitter_cfg.c ****     
  51:.\Generated_Source\PSoC4/cyfitter_cfg.c **** #else
  52:.\Generated_Source\PSoC4/cyfitter_cfg.c ****     #error Unsupported toolchain
  53:.\Generated_Source\PSoC4/cyfitter_cfg.c **** #endif
  54:.\Generated_Source\PSoC4/cyfitter_cfg.c **** 
  55:.\Generated_Source\PSoC4/cyfitter_cfg.c **** 
  56:.\Generated_Source\PSoC4/cyfitter_cfg.c **** CY_CFG_UNUSED
  57:.\Generated_Source\PSoC4/cyfitter_cfg.c **** static void CYMEMZERO(void *s, size_t n);
  58:.\Generated_Source\PSoC4/cyfitter_cfg.c **** CY_CFG_UNUSED
  59:.\Generated_Source\PSoC4/cyfitter_cfg.c **** static void CYMEMZERO(void *s, size_t n)
  60:.\Generated_Source\PSoC4/cyfitter_cfg.c **** {
  61:.\Generated_Source\PSoC4/cyfitter_cfg.c **** 	(void)memset(s, 0, n);
  62:.\Generated_Source\PSoC4/cyfitter_cfg.c **** }
  63:.\Generated_Source\PSoC4/cyfitter_cfg.c **** CY_CFG_UNUSED
  64:.\Generated_Source\PSoC4/cyfitter_cfg.c **** static void CYCONFIGCPY(void *dest, const void *src, size_t n);
  65:.\Generated_Source\PSoC4/cyfitter_cfg.c **** CY_CFG_UNUSED
  66:.\Generated_Source\PSoC4/cyfitter_cfg.c **** static void CYCONFIGCPY(void *dest, const void *src, size_t n)
  67:.\Generated_Source\PSoC4/cyfitter_cfg.c **** {
  68:.\Generated_Source\PSoC4/cyfitter_cfg.c **** 	(void)memcpy(dest, src, n);
  69:.\Generated_Source\PSoC4/cyfitter_cfg.c **** }
  70:.\Generated_Source\PSoC4/cyfitter_cfg.c **** CY_CFG_UNUSED
  71:.\Generated_Source\PSoC4/cyfitter_cfg.c **** static void CYCONFIGCPYCODE(void *dest, const void *src, size_t n);
  72:.\Generated_Source\PSoC4/cyfitter_cfg.c **** CY_CFG_UNUSED
  73:.\Generated_Source\PSoC4/cyfitter_cfg.c **** static void CYCONFIGCPYCODE(void *dest, const void *src, size_t n)
  74:.\Generated_Source\PSoC4/cyfitter_cfg.c **** {
  75:.\Generated_Source\PSoC4/cyfitter_cfg.c **** 	(void)memcpy(dest, src, n);
  76:.\Generated_Source\PSoC4/cyfitter_cfg.c **** }
  77:.\Generated_Source\PSoC4/cyfitter_cfg.c **** 
  78:.\Generated_Source\PSoC4/cyfitter_cfg.c **** 
  79:.\Generated_Source\PSoC4/cyfitter_cfg.c **** 
  80:.\Generated_Source\PSoC4/cyfitter_cfg.c **** /* Clock startup error codes                                                   */
  81:.\Generated_Source\PSoC4/cyfitter_cfg.c **** #define CYCLOCKSTART_NO_ERROR    0u
  82:.\Generated_Source\PSoC4/cyfitter_cfg.c **** #define CYCLOCKSTART_XTAL_ERROR  1u
  83:.\Generated_Source\PSoC4/cyfitter_cfg.c **** #define CYCLOCKSTART_32KHZ_ERROR 2u
  84:.\Generated_Source\PSoC4/cyfitter_cfg.c **** #define CYCLOCKSTART_PLL_ERROR   3u
  85:.\Generated_Source\PSoC4/cyfitter_cfg.c **** 
  86:.\Generated_Source\PSoC4/cyfitter_cfg.c **** #ifdef CY_NEED_CYCLOCKSTARTUPERROR
  87:.\Generated_Source\PSoC4/cyfitter_cfg.c **** /*******************************************************************************
  88:.\Generated_Source\PSoC4/cyfitter_cfg.c **** * Function Name: CyClockStartupError
  89:.\Generated_Source\PSoC4/cyfitter_cfg.c **** ********************************************************************************
  90:.\Generated_Source\PSoC4/cyfitter_cfg.c **** * Summary:
ARM GAS  C:\Users\DJSCE~1.STU\AppData\Local\Temp\ccH541Pm.s 			page 3


  91:.\Generated_Source\PSoC4/cyfitter_cfg.c **** *  If an error is encountered during clock configuration (crystal startup error,
  92:.\Generated_Source\PSoC4/cyfitter_cfg.c **** *  PLL lock error, etc.), the system will end up here.  Unless reimplemented by
  93:.\Generated_Source\PSoC4/cyfitter_cfg.c **** *  the customer, this function will stop in an infinite loop.
  94:.\Generated_Source\PSoC4/cyfitter_cfg.c **** *
  95:.\Generated_Source\PSoC4/cyfitter_cfg.c **** * Parameters:
  96:.\Generated_Source\PSoC4/cyfitter_cfg.c **** *   void
  97:.\Generated_Source\PSoC4/cyfitter_cfg.c **** *
  98:.\Generated_Source\PSoC4/cyfitter_cfg.c **** * Return:
  99:.\Generated_Source\PSoC4/cyfitter_cfg.c **** *   void
 100:.\Generated_Source\PSoC4/cyfitter_cfg.c **** *
 101:.\Generated_Source\PSoC4/cyfitter_cfg.c **** *******************************************************************************/
 102:.\Generated_Source\PSoC4/cyfitter_cfg.c **** CY_CFG_UNUSED
 103:.\Generated_Source\PSoC4/cyfitter_cfg.c **** static void CyClockStartupError(uint8 errorCode);
 104:.\Generated_Source\PSoC4/cyfitter_cfg.c **** CY_CFG_UNUSED
 105:.\Generated_Source\PSoC4/cyfitter_cfg.c **** static void CyClockStartupError(uint8 errorCode)
 106:.\Generated_Source\PSoC4/cyfitter_cfg.c **** {
 107:.\Generated_Source\PSoC4/cyfitter_cfg.c ****     /* To remove the compiler warning if errorCode not used.                */
 108:.\Generated_Source\PSoC4/cyfitter_cfg.c ****     errorCode = errorCode;
 109:.\Generated_Source\PSoC4/cyfitter_cfg.c **** 
 110:.\Generated_Source\PSoC4/cyfitter_cfg.c ****     /* `#START CyClockStartupError` */
 111:.\Generated_Source\PSoC4/cyfitter_cfg.c **** 
 112:.\Generated_Source\PSoC4/cyfitter_cfg.c ****     /* If we have a clock startup error (bad MHz crystal, PLL lock, etc.),  */
 113:.\Generated_Source\PSoC4/cyfitter_cfg.c ****     /* we will end up here to allow the customer to implement something to  */
 114:.\Generated_Source\PSoC4/cyfitter_cfg.c ****     /* deal with the clock condition.                                       */
 115:.\Generated_Source\PSoC4/cyfitter_cfg.c **** 
 116:.\Generated_Source\PSoC4/cyfitter_cfg.c ****     /* `#END` */
 117:.\Generated_Source\PSoC4/cyfitter_cfg.c **** 
 118:.\Generated_Source\PSoC4/cyfitter_cfg.c ****     /* If nothing else, stop here since the clocks have not started         */
 119:.\Generated_Source\PSoC4/cyfitter_cfg.c ****     /* correctly.                                                           */
 120:.\Generated_Source\PSoC4/cyfitter_cfg.c ****     while(1) {}
 121:.\Generated_Source\PSoC4/cyfitter_cfg.c **** }
 122:.\Generated_Source\PSoC4/cyfitter_cfg.c **** #endif
 123:.\Generated_Source\PSoC4/cyfitter_cfg.c **** 
 124:.\Generated_Source\PSoC4/cyfitter_cfg.c **** #define CY_CFG_BASE_ADDR_COUNT 8u
 125:.\Generated_Source\PSoC4/cyfitter_cfg.c **** CYPACKED typedef struct
 126:.\Generated_Source\PSoC4/cyfitter_cfg.c **** {
 127:.\Generated_Source\PSoC4/cyfitter_cfg.c **** 	uint8 offset;
 128:.\Generated_Source\PSoC4/cyfitter_cfg.c **** 	uint8 value;
 129:.\Generated_Source\PSoC4/cyfitter_cfg.c **** } CYPACKED_ATTR cy_cfg_addrvalue_t;
 130:.\Generated_Source\PSoC4/cyfitter_cfg.c **** 
 131:.\Generated_Source\PSoC4/cyfitter_cfg.c **** 
 132:.\Generated_Source\PSoC4/cyfitter_cfg.c **** 
 133:.\Generated_Source\PSoC4/cyfitter_cfg.c **** /*******************************************************************************
 134:.\Generated_Source\PSoC4/cyfitter_cfg.c **** * Function Name: cfg_write_bytes32
 135:.\Generated_Source\PSoC4/cyfitter_cfg.c **** ********************************************************************************
 136:.\Generated_Source\PSoC4/cyfitter_cfg.c **** * Summary:
 137:.\Generated_Source\PSoC4/cyfitter_cfg.c **** *  This function is used for setting up the chip configuration areas that
 138:.\Generated_Source\PSoC4/cyfitter_cfg.c **** *  contain relatively sparse data.
 139:.\Generated_Source\PSoC4/cyfitter_cfg.c **** *
 140:.\Generated_Source\PSoC4/cyfitter_cfg.c **** * Parameters:
 141:.\Generated_Source\PSoC4/cyfitter_cfg.c **** *   void
 142:.\Generated_Source\PSoC4/cyfitter_cfg.c **** *
 143:.\Generated_Source\PSoC4/cyfitter_cfg.c **** * Return:
 144:.\Generated_Source\PSoC4/cyfitter_cfg.c **** *   void
 145:.\Generated_Source\PSoC4/cyfitter_cfg.c **** *
 146:.\Generated_Source\PSoC4/cyfitter_cfg.c **** *******************************************************************************/
 147:.\Generated_Source\PSoC4/cyfitter_cfg.c **** static void cfg_write_bytes32(const uint32 addr_table[], const cy_cfg_addrvalue_t data_table[]);
ARM GAS  C:\Users\DJSCE~1.STU\AppData\Local\Temp\ccH541Pm.s 			page 4


 148:.\Generated_Source\PSoC4/cyfitter_cfg.c **** static void cfg_write_bytes32(const uint32 addr_table[], const cy_cfg_addrvalue_t data_table[])
 149:.\Generated_Source\PSoC4/cyfitter_cfg.c **** {
  25              		.loc 1 149 0
  26              		.cfi_startproc
  27              	.LVL0:
  28 0000 F0B5     		push	{r4, r5, r6, r7, lr}
  29              		.cfi_def_cfa_offset 20
  30              		.cfi_offset 4, -20
  31              		.cfi_offset 5, -16
  32              		.cfi_offset 6, -12
  33              		.cfi_offset 7, -8
  34              		.cfi_offset 14, -4
  35              	.LVL1:
 150:.\Generated_Source\PSoC4/cyfitter_cfg.c **** 	/* For 32-bit little-endian architectures */
 151:.\Generated_Source\PSoC4/cyfitter_cfg.c **** 	uint32 i, j = 0u;
  36              		.loc 1 151 0
  37 0002 0022     		mov	r2, #0
 152:.\Generated_Source\PSoC4/cyfitter_cfg.c **** 	for (i = 0u; i < CY_CFG_BASE_ADDR_COUNT; i++)
  38              		.loc 1 152 0
  39 0004 0027     		mov	r7, #0
  40              	.LBB2:
 153:.\Generated_Source\PSoC4/cyfitter_cfg.c **** 	{
 154:.\Generated_Source\PSoC4/cyfitter_cfg.c **** 		uint32 baseAddr = addr_table[i];
 155:.\Generated_Source\PSoC4/cyfitter_cfg.c **** 		uint8 count = (uint8)baseAddr;
 156:.\Generated_Source\PSoC4/cyfitter_cfg.c **** 		baseAddr &= 0xFFFFFF00u;
  41              		.loc 1 156 0
  42 0006 FF23     		mov	r3, #255
  43 0008 9C46     		mov	ip, r3
  44              	.LBE2:
 152:.\Generated_Source\PSoC4/cyfitter_cfg.c **** 	for (i = 0u; i < CY_CFG_BASE_ADDR_COUNT; i++)
  45              		.loc 1 152 0
  46 000a 11E0     		b	.L2
  47              	.LVL2:
  48              	.L5:
  49              	.LBB3:
 154:.\Generated_Source\PSoC4/cyfitter_cfg.c **** 		uint32 baseAddr = addr_table[i];
  50              		.loc 1 154 0
  51 000c BB00     		lsl	r3, r7, #2
  52 000e C658     		ldr	r6, [r0, r3]
  53              	.LVL3:
 155:.\Generated_Source\PSoC4/cyfitter_cfg.c **** 		uint8 count = (uint8)baseAddr;
  54              		.loc 1 155 0
  55 0010 F3B2     		uxtb	r3, r6
  56              	.LVL4:
  57              		.loc 1 156 0
  58 0012 6446     		mov	r4, ip
  59 0014 A643     		bic	r6, r4
  60              	.LVL5:
 157:.\Generated_Source\PSoC4/cyfitter_cfg.c **** 		while (count != 0u)
  61              		.loc 1 157 0
  62 0016 08E0     		b	.L3
  63              	.L4:
 158:.\Generated_Source\PSoC4/cyfitter_cfg.c **** 		{
 159:.\Generated_Source\PSoC4/cyfitter_cfg.c **** 			CY_SET_XTND_REG8((void CYFAR *)(baseAddr + data_table[j].offset), data_table[j].value);
  64              		.loc 1 159 0
  65 0018 5400     		lsl	r4, r2, #1
  66 001a 0C19     		add	r4, r1, r4
ARM GAS  C:\Users\DJSCE~1.STU\AppData\Local\Temp\ccH541Pm.s 			page 5


  67 001c 2578     		ldrb	r5, [r4]
  68 001e AD19     		add	r5, r5, r6
  69 0020 6478     		ldrb	r4, [r4, #1]
  70 0022 2C70     		strb	r4, [r5]
 160:.\Generated_Source\PSoC4/cyfitter_cfg.c **** 			j++;
  71              		.loc 1 160 0
  72 0024 0132     		add	r2, r2, #1
  73              	.LVL6:
 161:.\Generated_Source\PSoC4/cyfitter_cfg.c **** 			count--;
  74              		.loc 1 161 0
  75 0026 013B     		sub	r3, r3, #1
  76              	.LVL7:
  77 0028 DBB2     		uxtb	r3, r3
  78              	.LVL8:
  79              	.L3:
 157:.\Generated_Source\PSoC4/cyfitter_cfg.c **** 		while (count != 0u)
  80              		.loc 1 157 0 discriminator 1
  81 002a 002B     		cmp	r3, #0
  82 002c F4D1     		bne	.L4
  83              	.LBE3:
 152:.\Generated_Source\PSoC4/cyfitter_cfg.c **** 	for (i = 0u; i < CY_CFG_BASE_ADDR_COUNT; i++)
  84              		.loc 1 152 0
  85 002e 0137     		add	r7, r7, #1
  86              	.LVL9:
  87              	.L2:
 152:.\Generated_Source\PSoC4/cyfitter_cfg.c **** 	for (i = 0u; i < CY_CFG_BASE_ADDR_COUNT; i++)
  88              		.loc 1 152 0 is_stmt 0 discriminator 1
  89 0030 072F     		cmp	r7, #7
  90 0032 EBD9     		bls	.L5
 162:.\Generated_Source\PSoC4/cyfitter_cfg.c **** 		}
 163:.\Generated_Source\PSoC4/cyfitter_cfg.c **** 	}
 164:.\Generated_Source\PSoC4/cyfitter_cfg.c **** }
  91              		.loc 1 164 0 is_stmt 1
  92              		@ sp needed
  93              	.LVL10:
  94 0034 F0BD     		pop	{r4, r5, r6, r7, pc}
  95              		.cfi_endproc
  96              	.LFE3:
  97              		.size	cfg_write_bytes32, .-cfg_write_bytes32
  98 0036 C046     		.section	.text.CYMEMZERO,"ax",%progbits
  99              		.align	2
 100              		.code	16
 101              		.thumb_func
 102              		.type	CYMEMZERO, %function
 103              	CYMEMZERO:
 104              	.LFB0:
  60:.\Generated_Source\PSoC4/cyfitter_cfg.c **** {
 105              		.loc 1 60 0
 106              		.cfi_startproc
 107              	.LVL11:
 108 0000 08B5     		push	{r3, lr}
 109              		.cfi_def_cfa_offset 8
 110              		.cfi_offset 3, -8
 111              		.cfi_offset 14, -4
 112 0002 0A1C     		mov	r2, r1
  61:.\Generated_Source\PSoC4/cyfitter_cfg.c **** 	(void)memset(s, 0, n);
 113              		.loc 1 61 0
ARM GAS  C:\Users\DJSCE~1.STU\AppData\Local\Temp\ccH541Pm.s 			page 6


 114 0004 0021     		mov	r1, #0
 115              	.LVL12:
 116 0006 FFF7FEFF 		bl	memset
 117              	.LVL13:
  62:.\Generated_Source\PSoC4/cyfitter_cfg.c **** }
 118              		.loc 1 62 0
 119              		@ sp needed
 120 000a 08BD     		pop	{r3, pc}
 121              		.cfi_endproc
 122              	.LFE0:
 123              		.size	CYMEMZERO, .-CYMEMZERO
 124              		.section	.text.CYCONFIGCPYCODE,"ax",%progbits
 125              		.align	2
 126              		.code	16
 127              		.thumb_func
 128              		.type	CYCONFIGCPYCODE, %function
 129              	CYCONFIGCPYCODE:
 130              	.LFB2:
  74:.\Generated_Source\PSoC4/cyfitter_cfg.c **** {
 131              		.loc 1 74 0
 132              		.cfi_startproc
 133              	.LVL14:
 134 0000 08B5     		push	{r3, lr}
 135              		.cfi_def_cfa_offset 8
 136              		.cfi_offset 3, -8
 137              		.cfi_offset 14, -4
  75:.\Generated_Source\PSoC4/cyfitter_cfg.c **** 	(void)memcpy(dest, src, n);
 138              		.loc 1 75 0
 139 0002 FFF7FEFF 		bl	memcpy
 140              	.LVL15:
  76:.\Generated_Source\PSoC4/cyfitter_cfg.c **** }
 141              		.loc 1 76 0
 142              		@ sp needed
 143 0006 08BD     		pop	{r3, pc}
 144              		.cfi_endproc
 145              	.LFE2:
 146              		.size	CYCONFIGCPYCODE, .-CYCONFIGCPYCODE
 147              		.section	.psocinit,"ax",%progbits
 148              		.align	2
 149              		.code	16
 150              		.thumb_func
 151              		.type	ClockSetup, %function
 152              	ClockSetup:
 153              	.LFB4:
 165:.\Generated_Source\PSoC4/cyfitter_cfg.c **** 
 166:.\Generated_Source\PSoC4/cyfitter_cfg.c **** 
 167:.\Generated_Source\PSoC4/cyfitter_cfg.c **** /*******************************************************************************
 168:.\Generated_Source\PSoC4/cyfitter_cfg.c **** * Function Name: ClockSetup
 169:.\Generated_Source\PSoC4/cyfitter_cfg.c **** ********************************************************************************
 170:.\Generated_Source\PSoC4/cyfitter_cfg.c **** *
 171:.\Generated_Source\PSoC4/cyfitter_cfg.c **** * Summary:
 172:.\Generated_Source\PSoC4/cyfitter_cfg.c **** *   Performs the initialization of all of the clocks in the device based on the
 173:.\Generated_Source\PSoC4/cyfitter_cfg.c **** *   settings in the Clock tab of the DWR.  This includes enabling the requested
 174:.\Generated_Source\PSoC4/cyfitter_cfg.c **** *   clocks and setting the necessary dividers to produce the desired frequency. 
 175:.\Generated_Source\PSoC4/cyfitter_cfg.c **** *
 176:.\Generated_Source\PSoC4/cyfitter_cfg.c **** * Parameters:
 177:.\Generated_Source\PSoC4/cyfitter_cfg.c **** *   void
ARM GAS  C:\Users\DJSCE~1.STU\AppData\Local\Temp\ccH541Pm.s 			page 7


 178:.\Generated_Source\PSoC4/cyfitter_cfg.c **** *
 179:.\Generated_Source\PSoC4/cyfitter_cfg.c **** * Return:
 180:.\Generated_Source\PSoC4/cyfitter_cfg.c **** *   void
 181:.\Generated_Source\PSoC4/cyfitter_cfg.c **** *
 182:.\Generated_Source\PSoC4/cyfitter_cfg.c **** *******************************************************************************/
 183:.\Generated_Source\PSoC4/cyfitter_cfg.c **** static void ClockSetup(void);
 184:.\Generated_Source\PSoC4/cyfitter_cfg.c **** CY_CFG_SECTION
 185:.\Generated_Source\PSoC4/cyfitter_cfg.c **** static void ClockSetup(void)
 186:.\Generated_Source\PSoC4/cyfitter_cfg.c **** {
 154              		.loc 1 186 0
 155              		.cfi_startproc
 156 0000 10B5     		push	{r4, lr}
 157              		.cfi_def_cfa_offset 8
 158              		.cfi_offset 4, -8
 159              		.cfi_offset 14, -4
 187:.\Generated_Source\PSoC4/cyfitter_cfg.c **** 	/* Enable HALF_EN before trimming for the flash accelerator. */
 188:.\Generated_Source\PSoC4/cyfitter_cfg.c **** 	CY_SET_REG32((void CYXDATA *)(CYREG_CLK_SELECT), (CY_GET_REG32((void *)CYREG_CLK_SELECT) | 0x00040
 160              		.loc 1 188 0
 161 0002 124C     		ldr	r4, .L9
 162 0004 2268     		ldr	r2, [r4]
 163 0006 8023     		mov	r3, #128
 164 0008 DB02     		lsl	r3, r3, #11
 165 000a 1343     		orr	r3, r2
 166 000c 2360     		str	r3, [r4]
 189:.\Generated_Source\PSoC4/cyfitter_cfg.c **** 
 190:.\Generated_Source\PSoC4/cyfitter_cfg.c **** 	/* Setup and trim IMO based on desired frequency. */
 191:.\Generated_Source\PSoC4/cyfitter_cfg.c **** 	CySysClkWriteImoFreq(24u);
 167              		.loc 1 191 0
 168 000e 1820     		mov	r0, #24
 169 0010 FFF7FEFF 		bl	CySysClkWriteImoFreq
 170              	.LVL16:
 192:.\Generated_Source\PSoC4/cyfitter_cfg.c **** 
 193:.\Generated_Source\PSoC4/cyfitter_cfg.c **** 	/* Disable HALF_EN since it is not required at this IMO frequency. */
 194:.\Generated_Source\PSoC4/cyfitter_cfg.c **** 	CY_SET_REG32((void CYXDATA *)(CYREG_CLK_SELECT), (CY_GET_REG32((void *)CYREG_CLK_SELECT) & 0xFFFBF
 171              		.loc 1 194 0
 172 0014 2268     		ldr	r2, [r4]
 173 0016 0E4B     		ldr	r3, .L9+4
 174 0018 1340     		and	r3, r2
 175 001a 2360     		str	r3, [r4]
 195:.\Generated_Source\PSoC4/cyfitter_cfg.c **** 	/* CYDEV_CLK_ILO_CONFIG Starting address: CYDEV_CLK_ILO_CONFIG */
 196:.\Generated_Source\PSoC4/cyfitter_cfg.c **** 	CY_SET_XTND_REG32((void CYFAR *)(CYREG_CLK_ILO_CONFIG), 0x80000006u);
 176              		.loc 1 196 0
 177 001c 0D4A     		ldr	r2, .L9+8
 178 001e 0E4B     		ldr	r3, .L9+12
 179 0020 1A60     		str	r2, [r3]
 197:.\Generated_Source\PSoC4/cyfitter_cfg.c **** 
 198:.\Generated_Source\PSoC4/cyfitter_cfg.c **** 
 199:.\Generated_Source\PSoC4/cyfitter_cfg.c **** 	/* CYDEV_CLK_SELECT00 Starting address: CYDEV_CLK_SELECT00 */
 200:.\Generated_Source\PSoC4/cyfitter_cfg.c **** 	CY_SET_XTND_REG32((void CYFAR *)(CYREG_CLK_SELECT12), 0x00000010u);
 180              		.loc 1 200 0
 181 0022 1022     		mov	r2, #16
 182 0024 0D4B     		ldr	r3, .L9+16
 183 0026 1A60     		str	r2, [r3]
 201:.\Generated_Source\PSoC4/cyfitter_cfg.c **** 
 202:.\Generated_Source\PSoC4/cyfitter_cfg.c **** 	/* CYDEV_CLK_IMO_CONFIG Starting address: CYDEV_CLK_IMO_CONFIG */
 203:.\Generated_Source\PSoC4/cyfitter_cfg.c **** 	CY_SET_XTND_REG32((void CYFAR *)(CYREG_CLK_IMO_CONFIG), 0x80000000u);
 184              		.loc 1 203 0
ARM GAS  C:\Users\DJSCE~1.STU\AppData\Local\Temp\ccH541Pm.s 			page 8


 185 0028 8022     		mov	r2, #128
 186 002a 1206     		lsl	r2, r2, #24
 187 002c 0C4B     		ldr	r3, .L9+20
 188 002e 1A60     		str	r2, [r3]
 204:.\Generated_Source\PSoC4/cyfitter_cfg.c **** 
 205:.\Generated_Source\PSoC4/cyfitter_cfg.c **** 	/* CYDEV_CLK_DIVIDER_A00 Starting address: CYDEV_CLK_DIVIDER_A00 */
 206:.\Generated_Source\PSoC4/cyfitter_cfg.c **** 	CY_SET_XTND_REG32((void CYFAR *)(CYREG_CLK_DIVIDER_A00), 0x80000033u);
 189              		.loc 1 206 0
 190 0030 0C4A     		ldr	r2, .L9+24
 191 0032 0D4B     		ldr	r3, .L9+28
 192 0034 1A60     		str	r2, [r3]
 207:.\Generated_Source\PSoC4/cyfitter_cfg.c **** 
 208:.\Generated_Source\PSoC4/cyfitter_cfg.c **** 	(void)CyIntSetVector(9u, &CySysWdtIsr);
 193              		.loc 1 208 0
 194 0036 0920     		mov	r0, #9
 195 0038 0C49     		ldr	r1, .L9+32
 196 003a FFF7FEFF 		bl	CyIntSetVector
 197              	.LVL17:
 209:.\Generated_Source\PSoC4/cyfitter_cfg.c **** 	CyIntEnable(9u);
 198              		.loc 1 209 0
 199 003e 0920     		mov	r0, #9
 200 0040 FFF7FEFF 		bl	CyIntEnable
 201              	.LVL18:
 210:.\Generated_Source\PSoC4/cyfitter_cfg.c **** 	CY_SET_XTND_REG32((void CYFAR *)(CYREG_WDT_CONFIG), 0x00000000u);
 202              		.loc 1 210 0
 203 0044 0022     		mov	r2, #0
 204 0046 0A4B     		ldr	r3, .L9+36
 205 0048 1A60     		str	r2, [r3]
 211:.\Generated_Source\PSoC4/cyfitter_cfg.c **** }
 206              		.loc 1 211 0
 207              		@ sp needed
 208 004a 10BD     		pop	{r4, pc}
 209              	.L10:
 210              		.align	2
 211              	.L9:
 212 004c 00010B40 		.word	1074462976
 213 0050 FFFFFBFF 		.word	-262145
 214 0054 06000080 		.word	-2147483642
 215 0058 04010B40 		.word	1074462980
 216 005c 30020240 		.word	1073873456
 217 0060 08010B40 		.word	1074462984
 218 0064 33000080 		.word	-2147483597
 219 0068 00000240 		.word	1073872896
 220 006c 00000000 		.word	CySysWdtIsr
 221 0070 0C020B40 		.word	1074463244
 222              		.cfi_endproc
 223              	.LFE4:
 224              		.size	ClockSetup, .-ClockSetup
 225              		.align	2
 226              		.global	cyfitter_cfg
 227              		.code	16
 228              		.thumb_func
 229              		.type	cyfitter_cfg, %function
 230              	cyfitter_cfg:
 231              	.LFB6:
 212:.\Generated_Source\PSoC4/cyfitter_cfg.c **** 
 213:.\Generated_Source\PSoC4/cyfitter_cfg.c **** 
ARM GAS  C:\Users\DJSCE~1.STU\AppData\Local\Temp\ccH541Pm.s 			page 9


 214:.\Generated_Source\PSoC4/cyfitter_cfg.c **** /* Analog API Functions */
 215:.\Generated_Source\PSoC4/cyfitter_cfg.c **** 
 216:.\Generated_Source\PSoC4/cyfitter_cfg.c **** 
 217:.\Generated_Source\PSoC4/cyfitter_cfg.c **** /*******************************************************************************
 218:.\Generated_Source\PSoC4/cyfitter_cfg.c **** * Function Name: AnalogSetDefault
 219:.\Generated_Source\PSoC4/cyfitter_cfg.c **** ********************************************************************************
 220:.\Generated_Source\PSoC4/cyfitter_cfg.c **** *
 221:.\Generated_Source\PSoC4/cyfitter_cfg.c **** * Summary:
 222:.\Generated_Source\PSoC4/cyfitter_cfg.c **** *  Sets up the analog portions of the chip to default values based on chip
 223:.\Generated_Source\PSoC4/cyfitter_cfg.c **** *  configuration options from the project.
 224:.\Generated_Source\PSoC4/cyfitter_cfg.c **** *
 225:.\Generated_Source\PSoC4/cyfitter_cfg.c **** * Parameters:
 226:.\Generated_Source\PSoC4/cyfitter_cfg.c **** *  void
 227:.\Generated_Source\PSoC4/cyfitter_cfg.c **** *
 228:.\Generated_Source\PSoC4/cyfitter_cfg.c **** * Return:
 229:.\Generated_Source\PSoC4/cyfitter_cfg.c **** *  void
 230:.\Generated_Source\PSoC4/cyfitter_cfg.c **** *
 231:.\Generated_Source\PSoC4/cyfitter_cfg.c **** *******************************************************************************/
 232:.\Generated_Source\PSoC4/cyfitter_cfg.c **** static void AnalogSetDefault(void);
 233:.\Generated_Source\PSoC4/cyfitter_cfg.c **** static void AnalogSetDefault(void)
 234:.\Generated_Source\PSoC4/cyfitter_cfg.c **** {
 235:.\Generated_Source\PSoC4/cyfitter_cfg.c **** }
 236:.\Generated_Source\PSoC4/cyfitter_cfg.c **** 
 237:.\Generated_Source\PSoC4/cyfitter_cfg.c **** #define CY_AMUX_UNUSED CYREG_CM0_ROM_DWT
 238:.\Generated_Source\PSoC4/cyfitter_cfg.c **** 
 239:.\Generated_Source\PSoC4/cyfitter_cfg.c **** 
 240:.\Generated_Source\PSoC4/cyfitter_cfg.c **** /*******************************************************************************
 241:.\Generated_Source\PSoC4/cyfitter_cfg.c **** * Function Name: cyfitter_cfg
 242:.\Generated_Source\PSoC4/cyfitter_cfg.c **** ********************************************************************************
 243:.\Generated_Source\PSoC4/cyfitter_cfg.c **** * Summary:
 244:.\Generated_Source\PSoC4/cyfitter_cfg.c **** *  This function is called by the start-up code for the selected device. It
 245:.\Generated_Source\PSoC4/cyfitter_cfg.c **** *  performs all of the necessary device configuration based on the design
 246:.\Generated_Source\PSoC4/cyfitter_cfg.c **** *  settings.  This includes settings from the Design Wide Resources (DWR) such
 247:.\Generated_Source\PSoC4/cyfitter_cfg.c **** *  as Clocks and Pins as well as any component configuration that is necessary.
 248:.\Generated_Source\PSoC4/cyfitter_cfg.c **** *
 249:.\Generated_Source\PSoC4/cyfitter_cfg.c **** * Parameters:  
 250:.\Generated_Source\PSoC4/cyfitter_cfg.c **** *   void
 251:.\Generated_Source\PSoC4/cyfitter_cfg.c **** *
 252:.\Generated_Source\PSoC4/cyfitter_cfg.c **** * Return:
 253:.\Generated_Source\PSoC4/cyfitter_cfg.c **** *   void
 254:.\Generated_Source\PSoC4/cyfitter_cfg.c **** *
 255:.\Generated_Source\PSoC4/cyfitter_cfg.c **** *******************************************************************************/
 256:.\Generated_Source\PSoC4/cyfitter_cfg.c **** CY_CFG_SECTION
 257:.\Generated_Source\PSoC4/cyfitter_cfg.c **** void cyfitter_cfg(void)
 258:.\Generated_Source\PSoC4/cyfitter_cfg.c **** {
 232              		.loc 1 258 0
 233              		.cfi_startproc
 234 0074 38B5     		push	{r3, r4, r5, lr}
 235              		.cfi_def_cfa_offset 16
 236              		.cfi_offset 3, -16
 237              		.cfi_offset 4, -12
 238              		.cfi_offset 5, -8
 239              		.cfi_offset 14, -4
 259:.\Generated_Source\PSoC4/cyfitter_cfg.c **** 	/* Disable interrupts by default. Let user enable if/when they want. */
 260:.\Generated_Source\PSoC4/cyfitter_cfg.c **** 	CyGlobalIntDisable;
 240              		.loc 1 260 0
 241              	@ 260 ".\Generated_Source\PSoC4\cyfitter_cfg.c" 1
ARM GAS  C:\Users\DJSCE~1.STU\AppData\Local\Temp\ccH541Pm.s 			page 10


 242 0076 72B6     		CPSID   i
 243              	@ 0 "" 2
 244              	.LVL19:
 245              		.code	16
 246              	.LBB4:
 261:.\Generated_Source\PSoC4/cyfitter_cfg.c **** 
 262:.\Generated_Source\PSoC4/cyfitter_cfg.c **** 	{
 263:.\Generated_Source\PSoC4/cyfitter_cfg.c **** 		static const uint32 CYCODE cy_cfg_addr_table[] = {
 264:.\Generated_Source\PSoC4/cyfitter_cfg.c **** 			0x400F0003u, /* Base address: 0x400F0000 Count: 3 */
 265:.\Generated_Source\PSoC4/cyfitter_cfg.c **** 			0x400F3012u, /* Base address: 0x400F3000 Count: 18 */
 266:.\Generated_Source\PSoC4/cyfitter_cfg.c **** 			0x400F3138u, /* Base address: 0x400F3100 Count: 56 */
 267:.\Generated_Source\PSoC4/cyfitter_cfg.c **** 			0x400F3269u, /* Base address: 0x400F3200 Count: 105 */
 268:.\Generated_Source\PSoC4/cyfitter_cfg.c **** 			0x400F3345u, /* Base address: 0x400F3300 Count: 69 */
 269:.\Generated_Source\PSoC4/cyfitter_cfg.c **** 			0x400F4004u, /* Base address: 0x400F4000 Count: 4 */
 270:.\Generated_Source\PSoC4/cyfitter_cfg.c **** 			0x400F4104u, /* Base address: 0x400F4100 Count: 4 */
 271:.\Generated_Source\PSoC4/cyfitter_cfg.c **** 			0x400F6002u, /* Base address: 0x400F6000 Count: 2 */
 272:.\Generated_Source\PSoC4/cyfitter_cfg.c **** 		};
 273:.\Generated_Source\PSoC4/cyfitter_cfg.c **** 
 274:.\Generated_Source\PSoC4/cyfitter_cfg.c **** 		static const cy_cfg_addrvalue_t CYCODE cy_cfg_data_table[] = {
 275:.\Generated_Source\PSoC4/cyfitter_cfg.c **** 			{0x80u, 0x72u},
 276:.\Generated_Source\PSoC4/cyfitter_cfg.c **** 			{0x81u, 0x38u},
 277:.\Generated_Source\PSoC4/cyfitter_cfg.c **** 			{0x83u, 0x0Fu},
 278:.\Generated_Source\PSoC4/cyfitter_cfg.c **** 			{0x80u, 0x04u},
 279:.\Generated_Source\PSoC4/cyfitter_cfg.c **** 			{0x8Eu, 0x02u},
 280:.\Generated_Source\PSoC4/cyfitter_cfg.c **** 			{0x92u, 0x01u},
 281:.\Generated_Source\PSoC4/cyfitter_cfg.c **** 			{0x9Au, 0x02u},
 282:.\Generated_Source\PSoC4/cyfitter_cfg.c **** 			{0xA2u, 0x01u},
 283:.\Generated_Source\PSoC4/cyfitter_cfg.c **** 			{0xACu, 0x08u},
 284:.\Generated_Source\PSoC4/cyfitter_cfg.c **** 			{0xAFu, 0x01u},
 285:.\Generated_Source\PSoC4/cyfitter_cfg.c **** 			{0xB0u, 0x01u},
 286:.\Generated_Source\PSoC4/cyfitter_cfg.c **** 			{0xB1u, 0x01u},
 287:.\Generated_Source\PSoC4/cyfitter_cfg.c **** 			{0xB2u, 0x02u},
 288:.\Generated_Source\PSoC4/cyfitter_cfg.c **** 			{0xB4u, 0x04u},
 289:.\Generated_Source\PSoC4/cyfitter_cfg.c **** 			{0xB6u, 0x08u},
 290:.\Generated_Source\PSoC4/cyfitter_cfg.c **** 			{0xBEu, 0x55u},
 291:.\Generated_Source\PSoC4/cyfitter_cfg.c **** 			{0xD4u, 0x18u},
 292:.\Generated_Source\PSoC4/cyfitter_cfg.c **** 			{0xD8u, 0x04u},
 293:.\Generated_Source\PSoC4/cyfitter_cfg.c **** 			{0xD9u, 0x04u},
 294:.\Generated_Source\PSoC4/cyfitter_cfg.c **** 			{0xDBu, 0x04u},
 295:.\Generated_Source\PSoC4/cyfitter_cfg.c **** 			{0xDFu, 0x01u},
 296:.\Generated_Source\PSoC4/cyfitter_cfg.c **** 			{0x00u, 0x64u},
 297:.\Generated_Source\PSoC4/cyfitter_cfg.c **** 			{0x05u, 0x01u},
 298:.\Generated_Source\PSoC4/cyfitter_cfg.c **** 			{0x07u, 0x02u},
 299:.\Generated_Source\PSoC4/cyfitter_cfg.c **** 			{0x09u, 0x60u},
 300:.\Generated_Source\PSoC4/cyfitter_cfg.c **** 			{0x0Au, 0x10u},
 301:.\Generated_Source\PSoC4/cyfitter_cfg.c **** 			{0x0Bu, 0x40u},
 302:.\Generated_Source\PSoC4/cyfitter_cfg.c **** 			{0x0Eu, 0x40u},
 303:.\Generated_Source\PSoC4/cyfitter_cfg.c **** 			{0x0Fu, 0x84u},
 304:.\Generated_Source\PSoC4/cyfitter_cfg.c **** 			{0x10u, 0x80u},
 305:.\Generated_Source\PSoC4/cyfitter_cfg.c **** 			{0x12u, 0x01u},
 306:.\Generated_Source\PSoC4/cyfitter_cfg.c **** 			{0x13u, 0x28u},
 307:.\Generated_Source\PSoC4/cyfitter_cfg.c **** 			{0x14u, 0x01u},
 308:.\Generated_Source\PSoC4/cyfitter_cfg.c **** 			{0x15u, 0x02u},
 309:.\Generated_Source\PSoC4/cyfitter_cfg.c **** 			{0x18u, 0x04u},
 310:.\Generated_Source\PSoC4/cyfitter_cfg.c **** 			{0x19u, 0x26u},
 311:.\Generated_Source\PSoC4/cyfitter_cfg.c **** 			{0x1Au, 0x10u},
 312:.\Generated_Source\PSoC4/cyfitter_cfg.c **** 			{0x1Bu, 0x40u},
ARM GAS  C:\Users\DJSCE~1.STU\AppData\Local\Temp\ccH541Pm.s 			page 11


 313:.\Generated_Source\PSoC4/cyfitter_cfg.c **** 			{0x1Eu, 0x04u},
 314:.\Generated_Source\PSoC4/cyfitter_cfg.c **** 			{0x1Fu, 0x85u},
 315:.\Generated_Source\PSoC4/cyfitter_cfg.c **** 			{0x20u, 0x20u},
 316:.\Generated_Source\PSoC4/cyfitter_cfg.c **** 			{0x21u, 0x04u},
 317:.\Generated_Source\PSoC4/cyfitter_cfg.c **** 			{0x22u, 0x14u},
 318:.\Generated_Source\PSoC4/cyfitter_cfg.c **** 			{0x23u, 0x42u},
 319:.\Generated_Source\PSoC4/cyfitter_cfg.c **** 			{0x27u, 0x40u},
 320:.\Generated_Source\PSoC4/cyfitter_cfg.c **** 			{0x29u, 0x24u},
 321:.\Generated_Source\PSoC4/cyfitter_cfg.c **** 			{0x2Au, 0x01u},
 322:.\Generated_Source\PSoC4/cyfitter_cfg.c **** 			{0x2Du, 0x80u},
 323:.\Generated_Source\PSoC4/cyfitter_cfg.c **** 			{0x31u, 0x20u},
 324:.\Generated_Source\PSoC4/cyfitter_cfg.c **** 			{0x32u, 0x04u},
 325:.\Generated_Source\PSoC4/cyfitter_cfg.c **** 			{0x33u, 0x40u},
 326:.\Generated_Source\PSoC4/cyfitter_cfg.c **** 			{0x38u, 0x28u},
 327:.\Generated_Source\PSoC4/cyfitter_cfg.c **** 			{0x3Au, 0x02u},
 328:.\Generated_Source\PSoC4/cyfitter_cfg.c **** 			{0x3Bu, 0x40u},
 329:.\Generated_Source\PSoC4/cyfitter_cfg.c **** 			{0x40u, 0x01u},
 330:.\Generated_Source\PSoC4/cyfitter_cfg.c **** 			{0x41u, 0x24u},
 331:.\Generated_Source\PSoC4/cyfitter_cfg.c **** 			{0x42u, 0x40u},
 332:.\Generated_Source\PSoC4/cyfitter_cfg.c **** 			{0x49u, 0x20u},
 333:.\Generated_Source\PSoC4/cyfitter_cfg.c **** 			{0x4Bu, 0x04u},
 334:.\Generated_Source\PSoC4/cyfitter_cfg.c **** 			{0x51u, 0x01u},
 335:.\Generated_Source\PSoC4/cyfitter_cfg.c **** 			{0x5Au, 0x20u},
 336:.\Generated_Source\PSoC4/cyfitter_cfg.c **** 			{0x5Du, 0x02u},
 337:.\Generated_Source\PSoC4/cyfitter_cfg.c **** 			{0x67u, 0x0Au},
 338:.\Generated_Source\PSoC4/cyfitter_cfg.c **** 			{0x69u, 0x54u},
 339:.\Generated_Source\PSoC4/cyfitter_cfg.c **** 			{0x70u, 0x94u},
 340:.\Generated_Source\PSoC4/cyfitter_cfg.c **** 			{0x72u, 0x02u},
 341:.\Generated_Source\PSoC4/cyfitter_cfg.c **** 			{0x73u, 0x28u},
 342:.\Generated_Source\PSoC4/cyfitter_cfg.c **** 			{0xC0u, 0x97u},
 343:.\Generated_Source\PSoC4/cyfitter_cfg.c **** 			{0xC2u, 0x5Fu},
 344:.\Generated_Source\PSoC4/cyfitter_cfg.c **** 			{0xC4u, 0x9Fu},
 345:.\Generated_Source\PSoC4/cyfitter_cfg.c **** 			{0xCAu, 0x17u},
 346:.\Generated_Source\PSoC4/cyfitter_cfg.c **** 			{0xCCu, 0x0Eu},
 347:.\Generated_Source\PSoC4/cyfitter_cfg.c **** 			{0xCEu, 0x0Fu},
 348:.\Generated_Source\PSoC4/cyfitter_cfg.c **** 			{0xD0u, 0x0Fu},
 349:.\Generated_Source\PSoC4/cyfitter_cfg.c **** 			{0xD2u, 0x04u},
 350:.\Generated_Source\PSoC4/cyfitter_cfg.c **** 			{0xD6u, 0x84u},
 351:.\Generated_Source\PSoC4/cyfitter_cfg.c **** 			{0xD8u, 0x30u},
 352:.\Generated_Source\PSoC4/cyfitter_cfg.c **** 			{0x03u, 0x08u},
 353:.\Generated_Source\PSoC4/cyfitter_cfg.c **** 			{0x06u, 0x20u},
 354:.\Generated_Source\PSoC4/cyfitter_cfg.c **** 			{0x08u, 0x0Cu},
 355:.\Generated_Source\PSoC4/cyfitter_cfg.c **** 			{0x09u, 0x80u},
 356:.\Generated_Source\PSoC4/cyfitter_cfg.c **** 			{0x0Au, 0x71u},
 357:.\Generated_Source\PSoC4/cyfitter_cfg.c **** 			{0x0Bu, 0x13u},
 358:.\Generated_Source\PSoC4/cyfitter_cfg.c **** 			{0x0Cu, 0xDCu},
 359:.\Generated_Source\PSoC4/cyfitter_cfg.c **** 			{0x0Eu, 0x22u},
 360:.\Generated_Source\PSoC4/cyfitter_cfg.c **** 			{0x11u, 0x2Cu},
 361:.\Generated_Source\PSoC4/cyfitter_cfg.c **** 			{0x12u, 0x03u},
 362:.\Generated_Source\PSoC4/cyfitter_cfg.c **** 			{0x13u, 0x43u},
 363:.\Generated_Source\PSoC4/cyfitter_cfg.c **** 			{0x1Bu, 0x0Cu},
 364:.\Generated_Source\PSoC4/cyfitter_cfg.c **** 			{0x20u, 0x10u},
 365:.\Generated_Source\PSoC4/cyfitter_cfg.c **** 			{0x22u, 0x40u},
 366:.\Generated_Source\PSoC4/cyfitter_cfg.c **** 			{0x24u, 0x09u},
 367:.\Generated_Source\PSoC4/cyfitter_cfg.c **** 			{0x25u, 0x71u},
 368:.\Generated_Source\PSoC4/cyfitter_cfg.c **** 			{0x26u, 0xD0u},
 369:.\Generated_Source\PSoC4/cyfitter_cfg.c **** 			{0x27u, 0x0Eu},
ARM GAS  C:\Users\DJSCE~1.STU\AppData\Local\Temp\ccH541Pm.s 			page 12


 370:.\Generated_Source\PSoC4/cyfitter_cfg.c **** 			{0x28u, 0x14u},
 371:.\Generated_Source\PSoC4/cyfitter_cfg.c **** 			{0x29u, 0x71u},
 372:.\Generated_Source\PSoC4/cyfitter_cfg.c **** 			{0x2Bu, 0x06u},
 373:.\Generated_Source\PSoC4/cyfitter_cfg.c **** 			{0x2Cu, 0x10u},
 374:.\Generated_Source\PSoC4/cyfitter_cfg.c **** 			{0x2Eu, 0xACu},
 375:.\Generated_Source\PSoC4/cyfitter_cfg.c **** 			{0x30u, 0x1Fu},
 376:.\Generated_Source\PSoC4/cyfitter_cfg.c **** 			{0x33u, 0xC0u},
 377:.\Generated_Source\PSoC4/cyfitter_cfg.c **** 			{0x34u, 0xE0u},
 378:.\Generated_Source\PSoC4/cyfitter_cfg.c **** 			{0x35u, 0x30u},
 379:.\Generated_Source\PSoC4/cyfitter_cfg.c **** 			{0x37u, 0x0Fu},
 380:.\Generated_Source\PSoC4/cyfitter_cfg.c **** 			{0x39u, 0x28u},
 381:.\Generated_Source\PSoC4/cyfitter_cfg.c **** 			{0x3Au, 0x20u},
 382:.\Generated_Source\PSoC4/cyfitter_cfg.c **** 			{0x3Bu, 0x80u},
 383:.\Generated_Source\PSoC4/cyfitter_cfg.c **** 			{0x3Fu, 0x10u},
 384:.\Generated_Source\PSoC4/cyfitter_cfg.c **** 			{0x40u, 0x03u},
 385:.\Generated_Source\PSoC4/cyfitter_cfg.c **** 			{0x45u, 0x40u},
 386:.\Generated_Source\PSoC4/cyfitter_cfg.c **** 			{0x49u, 0xFFu},
 387:.\Generated_Source\PSoC4/cyfitter_cfg.c **** 			{0x4Au, 0x07u},
 388:.\Generated_Source\PSoC4/cyfitter_cfg.c **** 			{0x4Bu, 0xFFu},
 389:.\Generated_Source\PSoC4/cyfitter_cfg.c **** 			{0x4Cu, 0x40u},
 390:.\Generated_Source\PSoC4/cyfitter_cfg.c **** 			{0x4Du, 0x20u},
 391:.\Generated_Source\PSoC4/cyfitter_cfg.c **** 			{0x4Eu, 0xF0u},
 392:.\Generated_Source\PSoC4/cyfitter_cfg.c **** 			{0x4Fu, 0x05u},
 393:.\Generated_Source\PSoC4/cyfitter_cfg.c **** 			{0x50u, 0x08u},
 394:.\Generated_Source\PSoC4/cyfitter_cfg.c **** 			{0x58u, 0x04u},
 395:.\Generated_Source\PSoC4/cyfitter_cfg.c **** 			{0x59u, 0x04u},
 396:.\Generated_Source\PSoC4/cyfitter_cfg.c **** 			{0x5Au, 0x04u},
 397:.\Generated_Source\PSoC4/cyfitter_cfg.c **** 			{0x5Fu, 0x01u},
 398:.\Generated_Source\PSoC4/cyfitter_cfg.c **** 			{0x60u, 0x40u},
 399:.\Generated_Source\PSoC4/cyfitter_cfg.c **** 			{0x61u, 0xA8u},
 400:.\Generated_Source\PSoC4/cyfitter_cfg.c **** 			{0x62u, 0x40u},
 401:.\Generated_Source\PSoC4/cyfitter_cfg.c **** 			{0x63u, 0x20u},
 402:.\Generated_Source\PSoC4/cyfitter_cfg.c **** 			{0x80u, 0x20u},
 403:.\Generated_Source\PSoC4/cyfitter_cfg.c **** 			{0x81u, 0x01u},
 404:.\Generated_Source\PSoC4/cyfitter_cfg.c **** 			{0x82u, 0xC0u},
 405:.\Generated_Source\PSoC4/cyfitter_cfg.c **** 			{0x83u, 0x0Au},
 406:.\Generated_Source\PSoC4/cyfitter_cfg.c **** 			{0x85u, 0x13u},
 407:.\Generated_Source\PSoC4/cyfitter_cfg.c **** 			{0x86u, 0x15u},
 408:.\Generated_Source\PSoC4/cyfitter_cfg.c **** 			{0x88u, 0xE0u},
 409:.\Generated_Source\PSoC4/cyfitter_cfg.c **** 			{0x89u, 0x13u},
 410:.\Generated_Source\PSoC4/cyfitter_cfg.c **** 			{0x8Cu, 0x40u},
 411:.\Generated_Source\PSoC4/cyfitter_cfg.c **** 			{0x8Du, 0x10u},
 412:.\Generated_Source\PSoC4/cyfitter_cfg.c **** 			{0x8Eu, 0x20u},
 413:.\Generated_Source\PSoC4/cyfitter_cfg.c **** 			{0x90u, 0x13u},
 414:.\Generated_Source\PSoC4/cyfitter_cfg.c **** 			{0x92u, 0x0Cu},
 415:.\Generated_Source\PSoC4/cyfitter_cfg.c **** 			{0x94u, 0x13u},
 416:.\Generated_Source\PSoC4/cyfitter_cfg.c **** 			{0x95u, 0x02u},
 417:.\Generated_Source\PSoC4/cyfitter_cfg.c **** 			{0x96u, 0x04u},
 418:.\Generated_Source\PSoC4/cyfitter_cfg.c **** 			{0x97u, 0x09u},
 419:.\Generated_Source\PSoC4/cyfitter_cfg.c **** 			{0x98u, 0x80u},
 420:.\Generated_Source\PSoC4/cyfitter_cfg.c **** 			{0x9Au, 0x20u},
 421:.\Generated_Source\PSoC4/cyfitter_cfg.c **** 			{0x9Cu, 0x0Au},
 422:.\Generated_Source\PSoC4/cyfitter_cfg.c **** 			{0x9Eu, 0x14u},
 423:.\Generated_Source\PSoC4/cyfitter_cfg.c **** 			{0xA0u, 0x03u},
 424:.\Generated_Source\PSoC4/cyfitter_cfg.c **** 			{0xA2u, 0x14u},
 425:.\Generated_Source\PSoC4/cyfitter_cfg.c **** 			{0xA3u, 0x04u},
 426:.\Generated_Source\PSoC4/cyfitter_cfg.c **** 			{0xA4u, 0xE0u},
ARM GAS  C:\Users\DJSCE~1.STU\AppData\Local\Temp\ccH541Pm.s 			page 13


 427:.\Generated_Source\PSoC4/cyfitter_cfg.c **** 			{0xAAu, 0x08u},
 428:.\Generated_Source\PSoC4/cyfitter_cfg.c **** 			{0xB0u, 0xE0u},
 429:.\Generated_Source\PSoC4/cyfitter_cfg.c **** 			{0xB2u, 0x0Fu},
 430:.\Generated_Source\PSoC4/cyfitter_cfg.c **** 			{0xB3u, 0x03u},
 431:.\Generated_Source\PSoC4/cyfitter_cfg.c **** 			{0xB5u, 0x10u},
 432:.\Generated_Source\PSoC4/cyfitter_cfg.c **** 			{0xB6u, 0x10u},
 433:.\Generated_Source\PSoC4/cyfitter_cfg.c **** 			{0xB7u, 0x0Cu},
 434:.\Generated_Source\PSoC4/cyfitter_cfg.c **** 			{0xBAu, 0x08u},
 435:.\Generated_Source\PSoC4/cyfitter_cfg.c **** 			{0xBEu, 0x40u},
 436:.\Generated_Source\PSoC4/cyfitter_cfg.c **** 			{0xBFu, 0x40u},
 437:.\Generated_Source\PSoC4/cyfitter_cfg.c **** 			{0xC0u, 0x13u},
 438:.\Generated_Source\PSoC4/cyfitter_cfg.c **** 			{0xC1u, 0x02u},
 439:.\Generated_Source\PSoC4/cyfitter_cfg.c **** 			{0xC5u, 0xE0u},
 440:.\Generated_Source\PSoC4/cyfitter_cfg.c **** 			{0xC6u, 0xBCu},
 441:.\Generated_Source\PSoC4/cyfitter_cfg.c **** 			{0xC8u, 0x0Eu},
 442:.\Generated_Source\PSoC4/cyfitter_cfg.c **** 			{0xC9u, 0xFFu},
 443:.\Generated_Source\PSoC4/cyfitter_cfg.c **** 			{0xCAu, 0xFFu},
 444:.\Generated_Source\PSoC4/cyfitter_cfg.c **** 			{0xCBu, 0xFFu},
 445:.\Generated_Source\PSoC4/cyfitter_cfg.c **** 			{0xCEu, 0xF0u},
 446:.\Generated_Source\PSoC4/cyfitter_cfg.c **** 			{0xCFu, 0x44u},
 447:.\Generated_Source\PSoC4/cyfitter_cfg.c **** 			{0xD0u, 0x0Cu},
 448:.\Generated_Source\PSoC4/cyfitter_cfg.c **** 			{0xD4u, 0x01u},
 449:.\Generated_Source\PSoC4/cyfitter_cfg.c **** 			{0xD8u, 0x04u},
 450:.\Generated_Source\PSoC4/cyfitter_cfg.c **** 			{0xD9u, 0x04u},
 451:.\Generated_Source\PSoC4/cyfitter_cfg.c **** 			{0xDAu, 0x04u},
 452:.\Generated_Source\PSoC4/cyfitter_cfg.c **** 			{0xDBu, 0x04u},
 453:.\Generated_Source\PSoC4/cyfitter_cfg.c **** 			{0xDFu, 0x01u},
 454:.\Generated_Source\PSoC4/cyfitter_cfg.c **** 			{0xE6u, 0xC0u},
 455:.\Generated_Source\PSoC4/cyfitter_cfg.c **** 			{0xEAu, 0x40u},
 456:.\Generated_Source\PSoC4/cyfitter_cfg.c **** 			{0xEBu, 0x02u},
 457:.\Generated_Source\PSoC4/cyfitter_cfg.c **** 			{0x01u, 0x12u},
 458:.\Generated_Source\PSoC4/cyfitter_cfg.c **** 			{0x02u, 0x11u},
 459:.\Generated_Source\PSoC4/cyfitter_cfg.c **** 			{0x05u, 0x10u},
 460:.\Generated_Source\PSoC4/cyfitter_cfg.c **** 			{0x06u, 0x10u},
 461:.\Generated_Source\PSoC4/cyfitter_cfg.c **** 			{0x07u, 0x02u},
 462:.\Generated_Source\PSoC4/cyfitter_cfg.c **** 			{0x08u, 0x02u},
 463:.\Generated_Source\PSoC4/cyfitter_cfg.c **** 			{0x09u, 0x40u},
 464:.\Generated_Source\PSoC4/cyfitter_cfg.c **** 			{0x0Au, 0x08u},
 465:.\Generated_Source\PSoC4/cyfitter_cfg.c **** 			{0x0Bu, 0x20u},
 466:.\Generated_Source\PSoC4/cyfitter_cfg.c **** 			{0x0Cu, 0x01u},
 467:.\Generated_Source\PSoC4/cyfitter_cfg.c **** 			{0x0Eu, 0x40u},
 468:.\Generated_Source\PSoC4/cyfitter_cfg.c **** 			{0x10u, 0x80u},
 469:.\Generated_Source\PSoC4/cyfitter_cfg.c **** 			{0x11u, 0x04u},
 470:.\Generated_Source\PSoC4/cyfitter_cfg.c **** 			{0x13u, 0x20u},
 471:.\Generated_Source\PSoC4/cyfitter_cfg.c **** 			{0x14u, 0x12u},
 472:.\Generated_Source\PSoC4/cyfitter_cfg.c **** 			{0x15u, 0x21u},
 473:.\Generated_Source\PSoC4/cyfitter_cfg.c **** 			{0x18u, 0x40u},
 474:.\Generated_Source\PSoC4/cyfitter_cfg.c **** 			{0x19u, 0x82u},
 475:.\Generated_Source\PSoC4/cyfitter_cfg.c **** 			{0x1Bu, 0x08u},
 476:.\Generated_Source\PSoC4/cyfitter_cfg.c **** 			{0x1Du, 0x10u},
 477:.\Generated_Source\PSoC4/cyfitter_cfg.c **** 			{0x1Eu, 0x40u},
 478:.\Generated_Source\PSoC4/cyfitter_cfg.c **** 			{0x1Fu, 0x30u},
 479:.\Generated_Source\PSoC4/cyfitter_cfg.c **** 			{0x20u, 0x01u},
 480:.\Generated_Source\PSoC4/cyfitter_cfg.c **** 			{0x21u, 0x28u},
 481:.\Generated_Source\PSoC4/cyfitter_cfg.c **** 			{0x22u, 0x04u},
 482:.\Generated_Source\PSoC4/cyfitter_cfg.c **** 			{0x25u, 0x40u},
 483:.\Generated_Source\PSoC4/cyfitter_cfg.c **** 			{0x27u, 0x2Au},
ARM GAS  C:\Users\DJSCE~1.STU\AppData\Local\Temp\ccH541Pm.s 			page 14


 484:.\Generated_Source\PSoC4/cyfitter_cfg.c **** 			{0x29u, 0x02u},
 485:.\Generated_Source\PSoC4/cyfitter_cfg.c **** 			{0x2Fu, 0x28u},
 486:.\Generated_Source\PSoC4/cyfitter_cfg.c **** 			{0x31u, 0x08u},
 487:.\Generated_Source\PSoC4/cyfitter_cfg.c **** 			{0x34u, 0x10u},
 488:.\Generated_Source\PSoC4/cyfitter_cfg.c **** 			{0x37u, 0x22u},
 489:.\Generated_Source\PSoC4/cyfitter_cfg.c **** 			{0x39u, 0x54u},
 490:.\Generated_Source\PSoC4/cyfitter_cfg.c **** 			{0x3Au, 0x01u},
 491:.\Generated_Source\PSoC4/cyfitter_cfg.c **** 			{0x3Du, 0x01u},
 492:.\Generated_Source\PSoC4/cyfitter_cfg.c **** 			{0x3Eu, 0x20u},
 493:.\Generated_Source\PSoC4/cyfitter_cfg.c **** 			{0x40u, 0x02u},
 494:.\Generated_Source\PSoC4/cyfitter_cfg.c **** 			{0x42u, 0x20u},
 495:.\Generated_Source\PSoC4/cyfitter_cfg.c **** 			{0x43u, 0x20u},
 496:.\Generated_Source\PSoC4/cyfitter_cfg.c **** 			{0x47u, 0x08u},
 497:.\Generated_Source\PSoC4/cyfitter_cfg.c **** 			{0x49u, 0x01u},
 498:.\Generated_Source\PSoC4/cyfitter_cfg.c **** 			{0x4Du, 0x01u},
 499:.\Generated_Source\PSoC4/cyfitter_cfg.c **** 			{0x50u, 0x80u},
 500:.\Generated_Source\PSoC4/cyfitter_cfg.c **** 			{0x51u, 0x10u},
 501:.\Generated_Source\PSoC4/cyfitter_cfg.c **** 			{0x56u, 0x30u},
 502:.\Generated_Source\PSoC4/cyfitter_cfg.c **** 			{0x59u, 0x81u},
 503:.\Generated_Source\PSoC4/cyfitter_cfg.c **** 			{0x5Au, 0x04u},
 504:.\Generated_Source\PSoC4/cyfitter_cfg.c **** 			{0x5Bu, 0x10u},
 505:.\Generated_Source\PSoC4/cyfitter_cfg.c **** 			{0x8Cu, 0x82u},
 506:.\Generated_Source\PSoC4/cyfitter_cfg.c **** 			{0x8Fu, 0x18u},
 507:.\Generated_Source\PSoC4/cyfitter_cfg.c **** 			{0x91u, 0x54u},
 508:.\Generated_Source\PSoC4/cyfitter_cfg.c **** 			{0x92u, 0x04u},
 509:.\Generated_Source\PSoC4/cyfitter_cfg.c **** 			{0x94u, 0x41u},
 510:.\Generated_Source\PSoC4/cyfitter_cfg.c **** 			{0x9Au, 0x01u},
 511:.\Generated_Source\PSoC4/cyfitter_cfg.c **** 			{0x9Cu, 0x01u},
 512:.\Generated_Source\PSoC4/cyfitter_cfg.c **** 			{0x9Du, 0x01u},
 513:.\Generated_Source\PSoC4/cyfitter_cfg.c **** 			{0xA5u, 0x28u},
 514:.\Generated_Source\PSoC4/cyfitter_cfg.c **** 			{0xA9u, 0x80u},
 515:.\Generated_Source\PSoC4/cyfitter_cfg.c **** 			{0xAAu, 0x01u},
 516:.\Generated_Source\PSoC4/cyfitter_cfg.c **** 			{0xAFu, 0x80u},
 517:.\Generated_Source\PSoC4/cyfitter_cfg.c **** 			{0xB1u, 0x48u},
 518:.\Generated_Source\PSoC4/cyfitter_cfg.c **** 			{0xC0u, 0xEFu},
 519:.\Generated_Source\PSoC4/cyfitter_cfg.c **** 			{0xC2u, 0x1Fu},
 520:.\Generated_Source\PSoC4/cyfitter_cfg.c **** 			{0xC4u, 0xFEu},
 521:.\Generated_Source\PSoC4/cyfitter_cfg.c **** 			{0xCAu, 0x61u},
 522:.\Generated_Source\PSoC4/cyfitter_cfg.c **** 			{0xCCu, 0xA2u},
 523:.\Generated_Source\PSoC4/cyfitter_cfg.c **** 			{0xCEu, 0xAFu},
 524:.\Generated_Source\PSoC4/cyfitter_cfg.c **** 			{0xD0u, 0x4Eu},
 525:.\Generated_Source\PSoC4/cyfitter_cfg.c **** 			{0xD6u, 0x0Fu},
 526:.\Generated_Source\PSoC4/cyfitter_cfg.c **** 			{0x0Au, 0x40u},
 527:.\Generated_Source\PSoC4/cyfitter_cfg.c **** 			{0x63u, 0x02u},
 528:.\Generated_Source\PSoC4/cyfitter_cfg.c **** 			{0xC2u, 0x10u},
 529:.\Generated_Source\PSoC4/cyfitter_cfg.c **** 			{0xD6u, 0x40u},
 530:.\Generated_Source\PSoC4/cyfitter_cfg.c **** 			{0xAAu, 0x40u},
 531:.\Generated_Source\PSoC4/cyfitter_cfg.c **** 			{0xAFu, 0x01u},
 532:.\Generated_Source\PSoC4/cyfitter_cfg.c **** 			{0xE8u, 0x20u},
 533:.\Generated_Source\PSoC4/cyfitter_cfg.c **** 			{0xEEu, 0x10u},
 534:.\Generated_Source\PSoC4/cyfitter_cfg.c **** 			{0x10u, 0x01u},
 535:.\Generated_Source\PSoC4/cyfitter_cfg.c **** 			{0x11u, 0x01u},
 536:.\Generated_Source\PSoC4/cyfitter_cfg.c **** 		};
 537:.\Generated_Source\PSoC4/cyfitter_cfg.c **** 
 538:.\Generated_Source\PSoC4/cyfitter_cfg.c **** 
 539:.\Generated_Source\PSoC4/cyfitter_cfg.c **** 
 540:.\Generated_Source\PSoC4/cyfitter_cfg.c **** 		CYPACKED typedef struct {
ARM GAS  C:\Users\DJSCE~1.STU\AppData\Local\Temp\ccH541Pm.s 			page 15


 541:.\Generated_Source\PSoC4/cyfitter_cfg.c **** 			void CYFAR *address;
 542:.\Generated_Source\PSoC4/cyfitter_cfg.c **** 			uint16 size;
 543:.\Generated_Source\PSoC4/cyfitter_cfg.c **** 		} CYPACKED_ATTR cfg_memset_t;
 544:.\Generated_Source\PSoC4/cyfitter_cfg.c **** 
 545:.\Generated_Source\PSoC4/cyfitter_cfg.c **** 
 546:.\Generated_Source\PSoC4/cyfitter_cfg.c **** 		CYPACKED typedef struct {
 547:.\Generated_Source\PSoC4/cyfitter_cfg.c **** 			void CYFAR *dest;
 548:.\Generated_Source\PSoC4/cyfitter_cfg.c **** 			const void CYCODE *src;
 549:.\Generated_Source\PSoC4/cyfitter_cfg.c **** 			uint16 size;
 550:.\Generated_Source\PSoC4/cyfitter_cfg.c **** 		} CYPACKED_ATTR cfg_memcpy_t;
 551:.\Generated_Source\PSoC4/cyfitter_cfg.c **** 
 552:.\Generated_Source\PSoC4/cyfitter_cfg.c **** 		static const cfg_memset_t CYCODE cfg_memset_list [] = {
 553:.\Generated_Source\PSoC4/cyfitter_cfg.c **** 			/* address, size */
 554:.\Generated_Source\PSoC4/cyfitter_cfg.c **** 			{(void CYFAR *)(CYDEV_UDB_P0_U1_BASE), 896u},
 555:.\Generated_Source\PSoC4/cyfitter_cfg.c **** 			{(void CYFAR *)(CYDEV_UDB_DSI0_BASE), 1024u},
 556:.\Generated_Source\PSoC4/cyfitter_cfg.c **** 		};
 557:.\Generated_Source\PSoC4/cyfitter_cfg.c **** 
 558:.\Generated_Source\PSoC4/cyfitter_cfg.c **** 		/* UDB_0_1_0_CONFIG Address: CYDEV_UDB_P0_U0_BASE Size (bytes): 128 */
 559:.\Generated_Source\PSoC4/cyfitter_cfg.c **** 		static const uint8 CYCODE BS_UDB_0_1_0_CONFIG_VAL[] = {
 560:.\Generated_Source\PSoC4/cyfitter_cfg.c **** 			0x00u, 0x10u, 0x00u, 0x00u, 0xF3u, 0x18u, 0x0Cu, 0x00u, 0xFFu, 0x08u, 0x00u, 0x00u, 0xC3u, 0x3Cu
 561:.\Generated_Source\PSoC4/cyfitter_cfg.c **** 			0x1Cu, 0x00u, 0xE3u, 0x00u, 0x0Fu, 0x7Fu, 0xF0u, 0x00u, 0x00u, 0x00u, 0xF3u, 0x03u, 0x82u, 0x00u
 562:.\Generated_Source\PSoC4/cyfitter_cfg.c **** 			0x08u, 0x04u, 0x00u, 0x00u, 0x04u, 0x3Cu, 0x00u, 0x41u, 0x0Cu, 0x67u, 0x00u, 0x18u, 0x41u, 0x00u
 563:.\Generated_Source\PSoC4/cyfitter_cfg.c **** 			0xC0u, 0x1Fu, 0x2Cu, 0x00u, 0x0Fu, 0x20u, 0x1Cu, 0x40u, 0x00u, 0x80u, 0x28u, 0x0Au, 0x00u, 0x00u
 564:.\Generated_Source\PSoC4/cyfitter_cfg.c **** 			0x62u, 0x03u, 0x04u, 0x00u, 0x01u, 0x0Eu, 0x00u, 0xC0u, 0x21u, 0xFFu, 0xFFu, 0xFFu, 0x62u, 0xA0u
 565:.\Generated_Source\PSoC4/cyfitter_cfg.c **** 			0x0Cu, 0x00u, 0x00u, 0x00u, 0x00u, 0x00u, 0x02u, 0x11u, 0x04u, 0x04u, 0x04u, 0x04u, 0x00u, 0x00u
 566:.\Generated_Source\PSoC4/cyfitter_cfg.c **** 			0x00u, 0x00u, 0x00u, 0x00u, 0x00u, 0x00u, 0x40u, 0x02u, 0x00u, 0x10u, 0x30u, 0x10u, 0x00u, 0x10u
 567:.\Generated_Source\PSoC4/cyfitter_cfg.c **** 			0x00u, 0x00u, 0x00u, 0x00u, 0x00u, 0x00u, 0x00u, 0x00u, 0x00u, 0x00u, 0x00u, 0x00u, 0x00u, 0x00u
 568:.\Generated_Source\PSoC4/cyfitter_cfg.c **** 
 569:.\Generated_Source\PSoC4/cyfitter_cfg.c **** 		static const cfg_memcpy_t CYCODE cfg_memcpy_list [] = {
 570:.\Generated_Source\PSoC4/cyfitter_cfg.c **** 			/* dest, src, size */
 571:.\Generated_Source\PSoC4/cyfitter_cfg.c **** 			{(void CYFAR *)(CYDEV_UDB_P0_U0_BASE), BS_UDB_0_1_0_CONFIG_VAL, 128u},
 572:.\Generated_Source\PSoC4/cyfitter_cfg.c **** 		};
 573:.\Generated_Source\PSoC4/cyfitter_cfg.c **** 
 574:.\Generated_Source\PSoC4/cyfitter_cfg.c **** 		uint8 CYDATA i;
 575:.\Generated_Source\PSoC4/cyfitter_cfg.c **** 
 576:.\Generated_Source\PSoC4/cyfitter_cfg.c **** 		/* Zero out critical memory blocks before beginning configuration */
 577:.\Generated_Source\PSoC4/cyfitter_cfg.c **** 		for (i = 0u; i < (sizeof(cfg_memset_list)/sizeof(cfg_memset_list[0])); i++)
 247              		.loc 1 577 0
 248 0078 0024     		mov	r4, #0
 249              	.LBB5:
 578:.\Generated_Source\PSoC4/cyfitter_cfg.c **** 		{
 579:.\Generated_Source\PSoC4/cyfitter_cfg.c **** 			const cfg_memset_t CYCODE * CYDATA ms = &cfg_memset_list[i];
 250              		.loc 1 579 0
 251 007a 334D     		ldr	r5, .L16
 252              	.LBE5:
 577:.\Generated_Source\PSoC4/cyfitter_cfg.c **** 		for (i = 0u; i < (sizeof(cfg_memset_list)/sizeof(cfg_memset_list[0])); i++)
 253              		.loc 1 577 0
 254 007c 0CE0     		b	.L12
 255              	.LVL20:
 256              	.L13:
 257              	.LBB6:
 258              		.loc 1 579 0 discriminator 2
 259 007e 6300     		lsl	r3, r4, #1
 260 0080 1B19     		add	r3, r3, r4
 261 0082 5B00     		lsl	r3, r3, #1
 262 0084 EB18     		add	r3, r5, r3
 263              	.LVL21:
ARM GAS  C:\Users\DJSCE~1.STU\AppData\Local\Temp\ccH541Pm.s 			page 16


 580:.\Generated_Source\PSoC4/cyfitter_cfg.c **** 			CYMEMZERO(ms->address, (size_t)(uint32)(ms->size));
 264              		.loc 1 580 0 discriminator 2
 265 0086 9988     		ldrh	r1, [r3, #4]
 266 0088 1A88     		ldrh	r2, [r3]
 267 008a 5888     		ldrh	r0, [r3, #2]
 268 008c 0004     		lsl	r0, r0, #16
 269 008e 1043     		orr	r0, r2
 270 0090 FFF7FEFF 		bl	CYMEMZERO
 271              	.LVL22:
 272              	.LBE6:
 577:.\Generated_Source\PSoC4/cyfitter_cfg.c **** 		for (i = 0u; i < (sizeof(cfg_memset_list)/sizeof(cfg_memset_list[0])); i++)
 273              		.loc 1 577 0 discriminator 2
 274 0094 0134     		add	r4, r4, #1
 275              	.LVL23:
 276 0096 E4B2     		uxtb	r4, r4
 277              	.LVL24:
 278              	.L12:
 577:.\Generated_Source\PSoC4/cyfitter_cfg.c **** 		for (i = 0u; i < (sizeof(cfg_memset_list)/sizeof(cfg_memset_list[0])); i++)
 279              		.loc 1 577 0 is_stmt 0 discriminator 1
 280 0098 012C     		cmp	r4, #1
 281 009a F0D9     		bls	.L13
 282 009c 0024     		mov	r4, #0
 283              	.LVL25:
 284              	.LBB7:
 581:.\Generated_Source\PSoC4/cyfitter_cfg.c **** 		}
 582:.\Generated_Source\PSoC4/cyfitter_cfg.c **** 
 583:.\Generated_Source\PSoC4/cyfitter_cfg.c **** 		/* Copy device configuration data into registers */
 584:.\Generated_Source\PSoC4/cyfitter_cfg.c **** 		for (i = 0u; i < (sizeof(cfg_memcpy_list)/sizeof(cfg_memcpy_list[0])); i++)
 585:.\Generated_Source\PSoC4/cyfitter_cfg.c **** 		{
 586:.\Generated_Source\PSoC4/cyfitter_cfg.c **** 			const cfg_memcpy_t CYCODE * CYDATA mc = &cfg_memcpy_list[i];
 285              		.loc 1 586 0 is_stmt 1
 286 009e 2A4D     		ldr	r5, .L16
 287 00a0 0C35     		add	r5, r5, #12
 288 00a2 10E0     		b	.L14
 289              	.LVL26:
 290              	.L15:
 291              		.loc 1 586 0 is_stmt 0 discriminator 2
 292 00a4 A300     		lsl	r3, r4, #2
 293 00a6 1B19     		add	r3, r3, r4
 294 00a8 5B00     		lsl	r3, r3, #1
 295 00aa EB18     		add	r3, r5, r3
 296              	.LVL27:
 587:.\Generated_Source\PSoC4/cyfitter_cfg.c **** 			void * CYDATA destPtr = mc->dest;
 297              		.loc 1 587 0 is_stmt 1 discriminator 2
 298 00ac 1A88     		ldrh	r2, [r3]
 299 00ae 5888     		ldrh	r0, [r3, #2]
 300 00b0 0004     		lsl	r0, r0, #16
 301 00b2 1043     		orr	r0, r2
 302              	.LVL28:
 588:.\Generated_Source\PSoC4/cyfitter_cfg.c **** 			const void CYCODE * CYDATA srcPtr = mc->src;
 303              		.loc 1 588 0 discriminator 2
 304 00b4 9A88     		ldrh	r2, [r3, #4]
 305 00b6 D988     		ldrh	r1, [r3, #6]
 306 00b8 0904     		lsl	r1, r1, #16
 307 00ba 1143     		orr	r1, r2
 308              	.LVL29:
 589:.\Generated_Source\PSoC4/cyfitter_cfg.c **** 			uint16 CYDATA numBytes = mc->size;
ARM GAS  C:\Users\DJSCE~1.STU\AppData\Local\Temp\ccH541Pm.s 			page 17


 309              		.loc 1 589 0 discriminator 2
 310 00bc 1A89     		ldrh	r2, [r3, #8]
 311              	.LVL30:
 590:.\Generated_Source\PSoC4/cyfitter_cfg.c **** 			CYCONFIGCPYCODE(destPtr, srcPtr, numBytes);
 312              		.loc 1 590 0 discriminator 2
 313 00be FFF7FEFF 		bl	CYCONFIGCPYCODE
 314              	.LVL31:
 315              	.LBE7:
 584:.\Generated_Source\PSoC4/cyfitter_cfg.c **** 		for (i = 0u; i < (sizeof(cfg_memcpy_list)/sizeof(cfg_memcpy_list[0])); i++)
 316              		.loc 1 584 0 discriminator 2
 317 00c2 0134     		add	r4, r4, #1
 318              	.LVL32:
 319 00c4 E4B2     		uxtb	r4, r4
 320              	.LVL33:
 321              	.L14:
 584:.\Generated_Source\PSoC4/cyfitter_cfg.c **** 		for (i = 0u; i < (sizeof(cfg_memcpy_list)/sizeof(cfg_memcpy_list[0])); i++)
 322              		.loc 1 584 0 is_stmt 0 discriminator 1
 323 00c6 002C     		cmp	r4, #0
 324 00c8 ECD0     		beq	.L15
 591:.\Generated_Source\PSoC4/cyfitter_cfg.c **** 		}
 592:.\Generated_Source\PSoC4/cyfitter_cfg.c **** 
 593:.\Generated_Source\PSoC4/cyfitter_cfg.c **** 		cfg_write_bytes32(cy_cfg_addr_table, cy_cfg_data_table);
 325              		.loc 1 593 0 is_stmt 1
 326 00ca 1F49     		ldr	r1, .L16
 327 00cc 081C     		mov	r0, r1
 328 00ce 1830     		add	r0, r0, #24
 329 00d0 3831     		add	r1, r1, #56
 330 00d2 FFF7FEFF 		bl	cfg_write_bytes32
 331              	.LVL34:
 594:.\Generated_Source\PSoC4/cyfitter_cfg.c **** 
 595:.\Generated_Source\PSoC4/cyfitter_cfg.c **** 		/* Perform normal device configuration. Order is not critical for these items. */
 596:.\Generated_Source\PSoC4/cyfitter_cfg.c **** 		CY_SET_XTND_REG16((void CYFAR *)(CYREG_UDB_BCTL0_DRV), 0x0100u);
 332              		.loc 1 596 0
 333 00d6 8022     		mov	r2, #128
 334 00d8 5200     		lsl	r2, r2, #1
 335 00da 1C4B     		ldr	r3, .L16+4
 336 00dc 1A80     		strh	r2, [r3]
 597:.\Generated_Source\PSoC4/cyfitter_cfg.c **** 		CY_SET_XTND_REG8((void CYFAR *)(CYREG_UDB_BCTL0_DRV + 0x2u), 0x01u);
 337              		.loc 1 597 0
 338 00de 0122     		mov	r2, #1
 339 00e0 1B4B     		ldr	r3, .L16+8
 340 00e2 1A70     		strb	r2, [r3]
 598:.\Generated_Source\PSoC4/cyfitter_cfg.c **** 
 599:.\Generated_Source\PSoC4/cyfitter_cfg.c **** 		/* HSIOM Starting address: CYDEV_HSIOM_BASE */
 600:.\Generated_Source\PSoC4/cyfitter_cfg.c **** 		CY_SET_XTND_REG32((void CYFAR *)(CYDEV_HSIOM_BASE), 0x00300000u);
 341              		.loc 1 600 0
 342 00e4 C022     		mov	r2, #192
 343 00e6 9203     		lsl	r2, r2, #14
 344 00e8 1A4B     		ldr	r3, .L16+12
 345 00ea 1A60     		str	r2, [r3]
 601:.\Generated_Source\PSoC4/cyfitter_cfg.c **** 		CY_SET_XTND_REG32((void CYFAR *)(CYREG_HSIOM_PORT_SEL3), 0x0000EE00u);
 346              		.loc 1 601 0
 347 00ec EE22     		mov	r2, #238
 348 00ee 1202     		lsl	r2, r2, #8
 349 00f0 194B     		ldr	r3, .L16+16
 350 00f2 1A60     		str	r2, [r3]
 602:.\Generated_Source\PSoC4/cyfitter_cfg.c **** 
ARM GAS  C:\Users\DJSCE~1.STU\AppData\Local\Temp\ccH541Pm.s 			page 18


 603:.\Generated_Source\PSoC4/cyfitter_cfg.c **** 		/* UDB_PA_0 Starting address: CYDEV_UDB_PA0_BASE */
 604:.\Generated_Source\PSoC4/cyfitter_cfg.c **** 		CY_SET_XTND_REG32((void CYFAR *)(CYDEV_UDB_PA0_BASE), 0x00990004u);
 351              		.loc 1 604 0
 352 00f4 194A     		ldr	r2, .L16+20
 353 00f6 1A4B     		ldr	r3, .L16+24
 354 00f8 1A60     		str	r2, [r3]
 605:.\Generated_Source\PSoC4/cyfitter_cfg.c **** 		CY_SET_XTND_REG32((void CYFAR *)(CYREG_UDB_PA0_CFG4), 0x02000000u);
 355              		.loc 1 605 0
 356 00fa 8022     		mov	r2, #128
 357 00fc 9204     		lsl	r2, r2, #18
 358 00fe 194B     		ldr	r3, .L16+28
 359 0100 1A60     		str	r2, [r3]
 606:.\Generated_Source\PSoC4/cyfitter_cfg.c **** 
 607:.\Generated_Source\PSoC4/cyfitter_cfg.c **** 		/* UDB_PA_3 Starting address: CYDEV_UDB_PA3_BASE */
 608:.\Generated_Source\PSoC4/cyfitter_cfg.c **** 		CY_SET_XTND_REG32((void CYFAR *)(CYDEV_UDB_PA3_BASE), 0x00990000u);
 360              		.loc 1 608 0
 361 0102 9922     		mov	r2, #153
 362 0104 1204     		lsl	r2, r2, #16
 363 0106 184B     		ldr	r3, .L16+32
 364 0108 1A60     		str	r2, [r3]
 609:.\Generated_Source\PSoC4/cyfitter_cfg.c **** 
 610:.\Generated_Source\PSoC4/cyfitter_cfg.c **** 		/* Enable digital routing */
 611:.\Generated_Source\PSoC4/cyfitter_cfg.c **** 		CY_SET_XTND_REG8((void *)CYREG_UDB_UDBIF_BANK_CTL, CY_GET_XTND_REG8((void *)CYREG_UDB_UDBIF_BANK_
 365              		.loc 1 611 0
 366 010a 184B     		ldr	r3, .L16+36
 367 010c 1978     		ldrb	r1, [r3]
 368 010e 0222     		mov	r2, #2
 369 0110 0A43     		orr	r2, r1
 370 0112 1A70     		strb	r2, [r3]
 612:.\Generated_Source\PSoC4/cyfitter_cfg.c **** 
 613:.\Generated_Source\PSoC4/cyfitter_cfg.c **** 		/* Enable UDB array */
 614:.\Generated_Source\PSoC4/cyfitter_cfg.c **** 		CY_SET_XTND_REG8((void *)CYREG_UDB_UDBIF_WAIT_CFG, (uint8)((CY_GET_XTND_REG8((void *)CYREG_UDB_UD
 371              		.loc 1 614 0
 372 0114 164A     		ldr	r2, .L16+40
 373 0116 1178     		ldrb	r1, [r2]
 374 0118 3C20     		mov	r0, #60
 375 011a 8143     		bic	r1, r0
 376 011c 1420     		mov	r0, #20
 377 011e 0143     		orr	r1, r0
 378 0120 1170     		strb	r1, [r2]
 615:.\Generated_Source\PSoC4/cyfitter_cfg.c **** 		CY_SET_XTND_REG8((void *)CYREG_UDB_UDBIF_BANK_CTL, (uint8)(CY_GET_XTND_REG8((void *)CYREG_UDB_UDB
 379              		.loc 1 615 0
 380 0122 1978     		ldrb	r1, [r3]
 381 0124 1622     		mov	r2, #22
 382 0126 0A43     		orr	r2, r1
 383 0128 1A70     		strb	r2, [r3]
 384              	.LBE4:
 616:.\Generated_Source\PSoC4/cyfitter_cfg.c **** 	}
 617:.\Generated_Source\PSoC4/cyfitter_cfg.c **** 
 618:.\Generated_Source\PSoC4/cyfitter_cfg.c **** 	/* Perform second pass device configuration. These items must be configured in specific order afte
 619:.\Generated_Source\PSoC4/cyfitter_cfg.c **** 	/* IOPINS0_0 Starting address: CYDEV_PRT0_DR */
 620:.\Generated_Source\PSoC4/cyfitter_cfg.c **** 	CY_SET_XTND_REG32((void CYFAR *)(CYREG_PRT0_DR), 0x00000020u);
 385              		.loc 1 620 0
 386 012a 2022     		mov	r2, #32
 387 012c 114B     		ldr	r3, .L16+44
 388 012e 1A60     		str	r2, [r3]
 621:.\Generated_Source\PSoC4/cyfitter_cfg.c **** 	CY_SET_XTND_REG32((void CYFAR *)(CYREG_PRT0_PC), 0x00031000u);
ARM GAS  C:\Users\DJSCE~1.STU\AppData\Local\Temp\ccH541Pm.s 			page 19


 389              		.loc 1 621 0
 390 0130 C422     		mov	r2, #196
 391 0132 9202     		lsl	r2, r2, #10
 392 0134 104B     		ldr	r3, .L16+48
 393 0136 1A60     		str	r2, [r3]
 622:.\Generated_Source\PSoC4/cyfitter_cfg.c **** 
 623:.\Generated_Source\PSoC4/cyfitter_cfg.c **** 	/* IOPINS0_3 Starting address: CYDEV_PRT3_DR */
 624:.\Generated_Source\PSoC4/cyfitter_cfg.c **** 	CY_SET_XTND_REG32((void CYFAR *)(CYREG_PRT3_PC), 0x00000D80u);
 394              		.loc 1 624 0
 395 0138 D822     		mov	r2, #216
 396 013a 1201     		lsl	r2, r2, #4
 397 013c 0F4B     		ldr	r3, .L16+52
 398 013e 1A60     		str	r2, [r3]
 625:.\Generated_Source\PSoC4/cyfitter_cfg.c **** 
 626:.\Generated_Source\PSoC4/cyfitter_cfg.c **** 	/* Setup clocks based on selections from Clock DWR */
 627:.\Generated_Source\PSoC4/cyfitter_cfg.c **** 	ClockSetup();
 399              		.loc 1 627 0
 400 0140 FFF75EFF 		bl	ClockSetup
 401              	.LVL35:
 628:.\Generated_Source\PSoC4/cyfitter_cfg.c **** 
 629:.\Generated_Source\PSoC4/cyfitter_cfg.c **** 	/* Perform basic analog initialization to defaults */
 630:.\Generated_Source\PSoC4/cyfitter_cfg.c **** 	AnalogSetDefault();
 631:.\Generated_Source\PSoC4/cyfitter_cfg.c **** 
 632:.\Generated_Source\PSoC4/cyfitter_cfg.c **** }
 402              		.loc 1 632 0
 403              		@ sp needed
 404              	.LVL36:
 405 0144 38BD     		pop	{r3, r4, r5, pc}
 406              	.L17:
 407 0146 C046     		.align	2
 408              	.L16:
 409 0148 00000000 		.word	.LANCHOR0
 410 014c 00600F40 		.word	1074749440
 411 0150 02600F40 		.word	1074749442
 412 0154 00000140 		.word	1073807360
 413 0158 0C000140 		.word	1073807372
 414 015c 04009900 		.word	10027012
 415 0160 00500F40 		.word	1074745344
 416 0164 04500F40 		.word	1074745348
 417 0168 30500F40 		.word	1074745392
 418 016c 00700F40 		.word	1074753536
 419 0170 01700F40 		.word	1074753537
 420 0174 00000440 		.word	1074003968
 421 0178 08000440 		.word	1074003976
 422 017c 08030440 		.word	1074004744
 423              		.cfi_endproc
 424              	.LFE6:
 425              		.size	cyfitter_cfg, .-cyfitter_cfg
 426              		.section	.rodata
 427              		.align	2
 428              		.set	.LANCHOR0,. + 0
 429              		.type	cfg_memset_list.4745, %object
 430              		.size	cfg_memset_list.4745, 12
 431              	cfg_memset_list.4745:
 432 0000 80300F40 		.word	1074737280
 433 0004 8003     		.short	896
 434 0006 00400F40 		.4byte	1074741248
ARM GAS  C:\Users\DJSCE~1.STU\AppData\Local\Temp\ccH541Pm.s 			page 20


 435 000a 0004     		.short	1024
 436              		.type	cfg_memcpy_list.4747, %object
 437              		.size	cfg_memcpy_list.4747, 10
 438              	cfg_memcpy_list.4747:
 439 000c 00300F40 		.word	1074737152
 440 0010 44020000 		.word	BS_UDB_0_1_0_CONFIG_VAL.4746
 441 0014 8000     		.short	128
 442 0016 0000     		.space	2
 443              		.type	cy_cfg_addr_table.4734, %object
 444              		.size	cy_cfg_addr_table.4734, 32
 445              	cy_cfg_addr_table.4734:
 446 0018 03000F40 		.word	1074724867
 447 001c 12300F40 		.word	1074737170
 448 0020 38310F40 		.word	1074737464
 449 0024 69320F40 		.word	1074737769
 450 0028 45330F40 		.word	1074737989
 451 002c 04400F40 		.word	1074741252
 452 0030 04410F40 		.word	1074741508
 453 0034 02600F40 		.word	1074749442
 454              		.type	cy_cfg_data_table.4735, %object
 455              		.size	cy_cfg_data_table.4735, 522
 456              	cy_cfg_data_table.4735:
 457 0038 80       		.byte	-128
 458 0039 72       		.byte	114
 459 003a 81       		.byte	-127
 460 003b 38       		.byte	56
 461 003c 83       		.byte	-125
 462 003d 0F       		.byte	15
 463 003e 80       		.byte	-128
 464 003f 04       		.byte	4
 465 0040 8E       		.byte	-114
 466 0041 02       		.byte	2
 467 0042 92       		.byte	-110
 468 0043 01       		.byte	1
 469 0044 9A       		.byte	-102
 470 0045 02       		.byte	2
 471 0046 A2       		.byte	-94
 472 0047 01       		.byte	1
 473 0048 AC       		.byte	-84
 474 0049 08       		.byte	8
 475 004a AF       		.byte	-81
 476 004b 01       		.byte	1
 477 004c B0       		.byte	-80
 478 004d 01       		.byte	1
 479 004e B1       		.byte	-79
 480 004f 01       		.byte	1
 481 0050 B2       		.byte	-78
 482 0051 02       		.byte	2
 483 0052 B4       		.byte	-76
 484 0053 04       		.byte	4
 485 0054 B6       		.byte	-74
 486 0055 08       		.byte	8
 487 0056 BE       		.byte	-66
 488 0057 55       		.byte	85
 489 0058 D4       		.byte	-44
 490 0059 18       		.byte	24
 491 005a D8       		.byte	-40
ARM GAS  C:\Users\DJSCE~1.STU\AppData\Local\Temp\ccH541Pm.s 			page 21


 492 005b 04       		.byte	4
 493 005c D9       		.byte	-39
 494 005d 04       		.byte	4
 495 005e DB       		.byte	-37
 496 005f 04       		.byte	4
 497 0060 DF       		.byte	-33
 498 0061 01       		.byte	1
 499 0062 00       		.byte	0
 500 0063 64       		.byte	100
 501 0064 05       		.byte	5
 502 0065 01       		.byte	1
 503 0066 07       		.byte	7
 504 0067 02       		.byte	2
 505 0068 09       		.byte	9
 506 0069 60       		.byte	96
 507 006a 0A       		.byte	10
 508 006b 10       		.byte	16
 509 006c 0B       		.byte	11
 510 006d 40       		.byte	64
 511 006e 0E       		.byte	14
 512 006f 40       		.byte	64
 513 0070 0F       		.byte	15
 514 0071 84       		.byte	-124
 515 0072 10       		.byte	16
 516 0073 80       		.byte	-128
 517 0074 12       		.byte	18
 518 0075 01       		.byte	1
 519 0076 13       		.byte	19
 520 0077 28       		.byte	40
 521 0078 14       		.byte	20
 522 0079 01       		.byte	1
 523 007a 15       		.byte	21
 524 007b 02       		.byte	2
 525 007c 18       		.byte	24
 526 007d 04       		.byte	4
 527 007e 19       		.byte	25
 528 007f 26       		.byte	38
 529 0080 1A       		.byte	26
 530 0081 10       		.byte	16
 531 0082 1B       		.byte	27
 532 0083 40       		.byte	64
 533 0084 1E       		.byte	30
 534 0085 04       		.byte	4
 535 0086 1F       		.byte	31
 536 0087 85       		.byte	-123
 537 0088 20       		.byte	32
 538 0089 20       		.byte	32
 539 008a 21       		.byte	33
 540 008b 04       		.byte	4
 541 008c 22       		.byte	34
 542 008d 14       		.byte	20
 543 008e 23       		.byte	35
 544 008f 42       		.byte	66
 545 0090 27       		.byte	39
 546 0091 40       		.byte	64
 547 0092 29       		.byte	41
 548 0093 24       		.byte	36
ARM GAS  C:\Users\DJSCE~1.STU\AppData\Local\Temp\ccH541Pm.s 			page 22


 549 0094 2A       		.byte	42
 550 0095 01       		.byte	1
 551 0096 2D       		.byte	45
 552 0097 80       		.byte	-128
 553 0098 31       		.byte	49
 554 0099 20       		.byte	32
 555 009a 32       		.byte	50
 556 009b 04       		.byte	4
 557 009c 33       		.byte	51
 558 009d 40       		.byte	64
 559 009e 38       		.byte	56
 560 009f 28       		.byte	40
 561 00a0 3A       		.byte	58
 562 00a1 02       		.byte	2
 563 00a2 3B       		.byte	59
 564 00a3 40       		.byte	64
 565 00a4 40       		.byte	64
 566 00a5 01       		.byte	1
 567 00a6 41       		.byte	65
 568 00a7 24       		.byte	36
 569 00a8 42       		.byte	66
 570 00a9 40       		.byte	64
 571 00aa 49       		.byte	73
 572 00ab 20       		.byte	32
 573 00ac 4B       		.byte	75
 574 00ad 04       		.byte	4
 575 00ae 51       		.byte	81
 576 00af 01       		.byte	1
 577 00b0 5A       		.byte	90
 578 00b1 20       		.byte	32
 579 00b2 5D       		.byte	93
 580 00b3 02       		.byte	2
 581 00b4 67       		.byte	103
 582 00b5 0A       		.byte	10
 583 00b6 69       		.byte	105
 584 00b7 54       		.byte	84
 585 00b8 70       		.byte	112
 586 00b9 94       		.byte	-108
 587 00ba 72       		.byte	114
 588 00bb 02       		.byte	2
 589 00bc 73       		.byte	115
 590 00bd 28       		.byte	40
 591 00be C0       		.byte	-64
 592 00bf 97       		.byte	-105
 593 00c0 C2       		.byte	-62
 594 00c1 5F       		.byte	95
 595 00c2 C4       		.byte	-60
 596 00c3 9F       		.byte	-97
 597 00c4 CA       		.byte	-54
 598 00c5 17       		.byte	23
 599 00c6 CC       		.byte	-52
 600 00c7 0E       		.byte	14
 601 00c8 CE       		.byte	-50
 602 00c9 0F       		.byte	15
 603 00ca D0       		.byte	-48
 604 00cb 0F       		.byte	15
 605 00cc D2       		.byte	-46
ARM GAS  C:\Users\DJSCE~1.STU\AppData\Local\Temp\ccH541Pm.s 			page 23


 606 00cd 04       		.byte	4
 607 00ce D6       		.byte	-42
 608 00cf 84       		.byte	-124
 609 00d0 D8       		.byte	-40
 610 00d1 30       		.byte	48
 611 00d2 03       		.byte	3
 612 00d3 08       		.byte	8
 613 00d4 06       		.byte	6
 614 00d5 20       		.byte	32
 615 00d6 08       		.byte	8
 616 00d7 0C       		.byte	12
 617 00d8 09       		.byte	9
 618 00d9 80       		.byte	-128
 619 00da 0A       		.byte	10
 620 00db 71       		.byte	113
 621 00dc 0B       		.byte	11
 622 00dd 13       		.byte	19
 623 00de 0C       		.byte	12
 624 00df DC       		.byte	-36
 625 00e0 0E       		.byte	14
 626 00e1 22       		.byte	34
 627 00e2 11       		.byte	17
 628 00e3 2C       		.byte	44
 629 00e4 12       		.byte	18
 630 00e5 03       		.byte	3
 631 00e6 13       		.byte	19
 632 00e7 43       		.byte	67
 633 00e8 1B       		.byte	27
 634 00e9 0C       		.byte	12
 635 00ea 20       		.byte	32
 636 00eb 10       		.byte	16
 637 00ec 22       		.byte	34
 638 00ed 40       		.byte	64
 639 00ee 24       		.byte	36
 640 00ef 09       		.byte	9
 641 00f0 25       		.byte	37
 642 00f1 71       		.byte	113
 643 00f2 26       		.byte	38
 644 00f3 D0       		.byte	-48
 645 00f4 27       		.byte	39
 646 00f5 0E       		.byte	14
 647 00f6 28       		.byte	40
 648 00f7 14       		.byte	20
 649 00f8 29       		.byte	41
 650 00f9 71       		.byte	113
 651 00fa 2B       		.byte	43
 652 00fb 06       		.byte	6
 653 00fc 2C       		.byte	44
 654 00fd 10       		.byte	16
 655 00fe 2E       		.byte	46
 656 00ff AC       		.byte	-84
 657 0100 30       		.byte	48
 658 0101 1F       		.byte	31
 659 0102 33       		.byte	51
 660 0103 C0       		.byte	-64
 661 0104 34       		.byte	52
 662 0105 E0       		.byte	-32
ARM GAS  C:\Users\DJSCE~1.STU\AppData\Local\Temp\ccH541Pm.s 			page 24


 663 0106 35       		.byte	53
 664 0107 30       		.byte	48
 665 0108 37       		.byte	55
 666 0109 0F       		.byte	15
 667 010a 39       		.byte	57
 668 010b 28       		.byte	40
 669 010c 3A       		.byte	58
 670 010d 20       		.byte	32
 671 010e 3B       		.byte	59
 672 010f 80       		.byte	-128
 673 0110 3F       		.byte	63
 674 0111 10       		.byte	16
 675 0112 40       		.byte	64
 676 0113 03       		.byte	3
 677 0114 45       		.byte	69
 678 0115 40       		.byte	64
 679 0116 49       		.byte	73
 680 0117 FF       		.byte	-1
 681 0118 4A       		.byte	74
 682 0119 07       		.byte	7
 683 011a 4B       		.byte	75
 684 011b FF       		.byte	-1
 685 011c 4C       		.byte	76
 686 011d 40       		.byte	64
 687 011e 4D       		.byte	77
 688 011f 20       		.byte	32
 689 0120 4E       		.byte	78
 690 0121 F0       		.byte	-16
 691 0122 4F       		.byte	79
 692 0123 05       		.byte	5
 693 0124 50       		.byte	80
 694 0125 08       		.byte	8
 695 0126 58       		.byte	88
 696 0127 04       		.byte	4
 697 0128 59       		.byte	89
 698 0129 04       		.byte	4
 699 012a 5A       		.byte	90
 700 012b 04       		.byte	4
 701 012c 5F       		.byte	95
 702 012d 01       		.byte	1
 703 012e 60       		.byte	96
 704 012f 40       		.byte	64
 705 0130 61       		.byte	97
 706 0131 A8       		.byte	-88
 707 0132 62       		.byte	98
 708 0133 40       		.byte	64
 709 0134 63       		.byte	99
 710 0135 20       		.byte	32
 711 0136 80       		.byte	-128
 712 0137 20       		.byte	32
 713 0138 81       		.byte	-127
 714 0139 01       		.byte	1
 715 013a 82       		.byte	-126
 716 013b C0       		.byte	-64
 717 013c 83       		.byte	-125
 718 013d 0A       		.byte	10
 719 013e 85       		.byte	-123
ARM GAS  C:\Users\DJSCE~1.STU\AppData\Local\Temp\ccH541Pm.s 			page 25


 720 013f 13       		.byte	19
 721 0140 86       		.byte	-122
 722 0141 15       		.byte	21
 723 0142 88       		.byte	-120
 724 0143 E0       		.byte	-32
 725 0144 89       		.byte	-119
 726 0145 13       		.byte	19
 727 0146 8C       		.byte	-116
 728 0147 40       		.byte	64
 729 0148 8D       		.byte	-115
 730 0149 10       		.byte	16
 731 014a 8E       		.byte	-114
 732 014b 20       		.byte	32
 733 014c 90       		.byte	-112
 734 014d 13       		.byte	19
 735 014e 92       		.byte	-110
 736 014f 0C       		.byte	12
 737 0150 94       		.byte	-108
 738 0151 13       		.byte	19
 739 0152 95       		.byte	-107
 740 0153 02       		.byte	2
 741 0154 96       		.byte	-106
 742 0155 04       		.byte	4
 743 0156 97       		.byte	-105
 744 0157 09       		.byte	9
 745 0158 98       		.byte	-104
 746 0159 80       		.byte	-128
 747 015a 9A       		.byte	-102
 748 015b 20       		.byte	32
 749 015c 9C       		.byte	-100
 750 015d 0A       		.byte	10
 751 015e 9E       		.byte	-98
 752 015f 14       		.byte	20
 753 0160 A0       		.byte	-96
 754 0161 03       		.byte	3
 755 0162 A2       		.byte	-94
 756 0163 14       		.byte	20
 757 0164 A3       		.byte	-93
 758 0165 04       		.byte	4
 759 0166 A4       		.byte	-92
 760 0167 E0       		.byte	-32
 761 0168 AA       		.byte	-86
 762 0169 08       		.byte	8
 763 016a B0       		.byte	-80
 764 016b E0       		.byte	-32
 765 016c B2       		.byte	-78
 766 016d 0F       		.byte	15
 767 016e B3       		.byte	-77
 768 016f 03       		.byte	3
 769 0170 B5       		.byte	-75
 770 0171 10       		.byte	16
 771 0172 B6       		.byte	-74
 772 0173 10       		.byte	16
 773 0174 B7       		.byte	-73
 774 0175 0C       		.byte	12
 775 0176 BA       		.byte	-70
 776 0177 08       		.byte	8
ARM GAS  C:\Users\DJSCE~1.STU\AppData\Local\Temp\ccH541Pm.s 			page 26


 777 0178 BE       		.byte	-66
 778 0179 40       		.byte	64
 779 017a BF       		.byte	-65
 780 017b 40       		.byte	64
 781 017c C0       		.byte	-64
 782 017d 13       		.byte	19
 783 017e C1       		.byte	-63
 784 017f 02       		.byte	2
 785 0180 C5       		.byte	-59
 786 0181 E0       		.byte	-32
 787 0182 C6       		.byte	-58
 788 0183 BC       		.byte	-68
 789 0184 C8       		.byte	-56
 790 0185 0E       		.byte	14
 791 0186 C9       		.byte	-55
 792 0187 FF       		.byte	-1
 793 0188 CA       		.byte	-54
 794 0189 FF       		.byte	-1
 795 018a CB       		.byte	-53
 796 018b FF       		.byte	-1
 797 018c CE       		.byte	-50
 798 018d F0       		.byte	-16
 799 018e CF       		.byte	-49
 800 018f 44       		.byte	68
 801 0190 D0       		.byte	-48
 802 0191 0C       		.byte	12
 803 0192 D4       		.byte	-44
 804 0193 01       		.byte	1
 805 0194 D8       		.byte	-40
 806 0195 04       		.byte	4
 807 0196 D9       		.byte	-39
 808 0197 04       		.byte	4
 809 0198 DA       		.byte	-38
 810 0199 04       		.byte	4
 811 019a DB       		.byte	-37
 812 019b 04       		.byte	4
 813 019c DF       		.byte	-33
 814 019d 01       		.byte	1
 815 019e E6       		.byte	-26
 816 019f C0       		.byte	-64
 817 01a0 EA       		.byte	-22
 818 01a1 40       		.byte	64
 819 01a2 EB       		.byte	-21
 820 01a3 02       		.byte	2
 821 01a4 01       		.byte	1
 822 01a5 12       		.byte	18
 823 01a6 02       		.byte	2
 824 01a7 11       		.byte	17
 825 01a8 05       		.byte	5
 826 01a9 10       		.byte	16
 827 01aa 06       		.byte	6
 828 01ab 10       		.byte	16
 829 01ac 07       		.byte	7
 830 01ad 02       		.byte	2
 831 01ae 08       		.byte	8
 832 01af 02       		.byte	2
 833 01b0 09       		.byte	9
ARM GAS  C:\Users\DJSCE~1.STU\AppData\Local\Temp\ccH541Pm.s 			page 27


 834 01b1 40       		.byte	64
 835 01b2 0A       		.byte	10
 836 01b3 08       		.byte	8
 837 01b4 0B       		.byte	11
 838 01b5 20       		.byte	32
 839 01b6 0C       		.byte	12
 840 01b7 01       		.byte	1
 841 01b8 0E       		.byte	14
 842 01b9 40       		.byte	64
 843 01ba 10       		.byte	16
 844 01bb 80       		.byte	-128
 845 01bc 11       		.byte	17
 846 01bd 04       		.byte	4
 847 01be 13       		.byte	19
 848 01bf 20       		.byte	32
 849 01c0 14       		.byte	20
 850 01c1 12       		.byte	18
 851 01c2 15       		.byte	21
 852 01c3 21       		.byte	33
 853 01c4 18       		.byte	24
 854 01c5 40       		.byte	64
 855 01c6 19       		.byte	25
 856 01c7 82       		.byte	-126
 857 01c8 1B       		.byte	27
 858 01c9 08       		.byte	8
 859 01ca 1D       		.byte	29
 860 01cb 10       		.byte	16
 861 01cc 1E       		.byte	30
 862 01cd 40       		.byte	64
 863 01ce 1F       		.byte	31
 864 01cf 30       		.byte	48
 865 01d0 20       		.byte	32
 866 01d1 01       		.byte	1
 867 01d2 21       		.byte	33
 868 01d3 28       		.byte	40
 869 01d4 22       		.byte	34
 870 01d5 04       		.byte	4
 871 01d6 25       		.byte	37
 872 01d7 40       		.byte	64
 873 01d8 27       		.byte	39
 874 01d9 2A       		.byte	42
 875 01da 29       		.byte	41
 876 01db 02       		.byte	2
 877 01dc 2F       		.byte	47
 878 01dd 28       		.byte	40
 879 01de 31       		.byte	49
 880 01df 08       		.byte	8
 881 01e0 34       		.byte	52
 882 01e1 10       		.byte	16
 883 01e2 37       		.byte	55
 884 01e3 22       		.byte	34
 885 01e4 39       		.byte	57
 886 01e5 54       		.byte	84
 887 01e6 3A       		.byte	58
 888 01e7 01       		.byte	1
 889 01e8 3D       		.byte	61
 890 01e9 01       		.byte	1
ARM GAS  C:\Users\DJSCE~1.STU\AppData\Local\Temp\ccH541Pm.s 			page 28


 891 01ea 3E       		.byte	62
 892 01eb 20       		.byte	32
 893 01ec 40       		.byte	64
 894 01ed 02       		.byte	2
 895 01ee 42       		.byte	66
 896 01ef 20       		.byte	32
 897 01f0 43       		.byte	67
 898 01f1 20       		.byte	32
 899 01f2 47       		.byte	71
 900 01f3 08       		.byte	8
 901 01f4 49       		.byte	73
 902 01f5 01       		.byte	1
 903 01f6 4D       		.byte	77
 904 01f7 01       		.byte	1
 905 01f8 50       		.byte	80
 906 01f9 80       		.byte	-128
 907 01fa 51       		.byte	81
 908 01fb 10       		.byte	16
 909 01fc 56       		.byte	86
 910 01fd 30       		.byte	48
 911 01fe 59       		.byte	89
 912 01ff 81       		.byte	-127
 913 0200 5A       		.byte	90
 914 0201 04       		.byte	4
 915 0202 5B       		.byte	91
 916 0203 10       		.byte	16
 917 0204 8C       		.byte	-116
 918 0205 82       		.byte	-126
 919 0206 8F       		.byte	-113
 920 0207 18       		.byte	24
 921 0208 91       		.byte	-111
 922 0209 54       		.byte	84
 923 020a 92       		.byte	-110
 924 020b 04       		.byte	4
 925 020c 94       		.byte	-108
 926 020d 41       		.byte	65
 927 020e 9A       		.byte	-102
 928 020f 01       		.byte	1
 929 0210 9C       		.byte	-100
 930 0211 01       		.byte	1
 931 0212 9D       		.byte	-99
 932 0213 01       		.byte	1
 933 0214 A5       		.byte	-91
 934 0215 28       		.byte	40
 935 0216 A9       		.byte	-87
 936 0217 80       		.byte	-128
 937 0218 AA       		.byte	-86
 938 0219 01       		.byte	1
 939 021a AF       		.byte	-81
 940 021b 80       		.byte	-128
 941 021c B1       		.byte	-79
 942 021d 48       		.byte	72
 943 021e C0       		.byte	-64
 944 021f EF       		.byte	-17
 945 0220 C2       		.byte	-62
 946 0221 1F       		.byte	31
 947 0222 C4       		.byte	-60
ARM GAS  C:\Users\DJSCE~1.STU\AppData\Local\Temp\ccH541Pm.s 			page 29


 948 0223 FE       		.byte	-2
 949 0224 CA       		.byte	-54
 950 0225 61       		.byte	97
 951 0226 CC       		.byte	-52
 952 0227 A2       		.byte	-94
 953 0228 CE       		.byte	-50
 954 0229 AF       		.byte	-81
 955 022a D0       		.byte	-48
 956 022b 4E       		.byte	78
 957 022c D6       		.byte	-42
 958 022d 0F       		.byte	15
 959 022e 0A       		.byte	10
 960 022f 40       		.byte	64
 961 0230 63       		.byte	99
 962 0231 02       		.byte	2
 963 0232 C2       		.byte	-62
 964 0233 10       		.byte	16
 965 0234 D6       		.byte	-42
 966 0235 40       		.byte	64
 967 0236 AA       		.byte	-86
 968 0237 40       		.byte	64
 969 0238 AF       		.byte	-81
 970 0239 01       		.byte	1
 971 023a E8       		.byte	-24
 972 023b 20       		.byte	32
 973 023c EE       		.byte	-18
 974 023d 10       		.byte	16
 975 023e 10       		.byte	16
 976 023f 01       		.byte	1
 977 0240 11       		.byte	17
 978 0241 01       		.byte	1
 979 0242 0000     		.space	2
 980              		.type	BS_UDB_0_1_0_CONFIG_VAL.4746, %object
 981              		.size	BS_UDB_0_1_0_CONFIG_VAL.4746, 128
 982              	BS_UDB_0_1_0_CONFIG_VAL.4746:
 983 0244 00       		.byte	0
 984 0245 10       		.byte	16
 985 0246 00       		.byte	0
 986 0247 00       		.byte	0
 987 0248 F3       		.byte	-13
 988 0249 18       		.byte	24
 989 024a 0C       		.byte	12
 990 024b 00       		.byte	0
 991 024c FF       		.byte	-1
 992 024d 08       		.byte	8
 993 024e 00       		.byte	0
 994 024f 00       		.byte	0
 995 0250 C3       		.byte	-61
 996 0251 3C       		.byte	60
 997 0252 00       		.byte	0
 998 0253 42       		.byte	66
 999 0254 1C       		.byte	28
 1000 0255 00       		.byte	0
 1001 0256 E3       		.byte	-29
 1002 0257 00       		.byte	0
 1003 0258 0F       		.byte	15
 1004 0259 7F       		.byte	127
ARM GAS  C:\Users\DJSCE~1.STU\AppData\Local\Temp\ccH541Pm.s 			page 30


 1005 025a F0       		.byte	-16
 1006 025b 00       		.byte	0
 1007 025c 00       		.byte	0
 1008 025d 00       		.byte	0
 1009 025e F3       		.byte	-13
 1010 025f 03       		.byte	3
 1011 0260 82       		.byte	-126
 1012 0261 00       		.byte	0
 1013 0262 00       		.byte	0
 1014 0263 04       		.byte	4
 1015 0264 08       		.byte	8
 1016 0265 04       		.byte	4
 1017 0266 00       		.byte	0
 1018 0267 00       		.byte	0
 1019 0268 04       		.byte	4
 1020 0269 3C       		.byte	60
 1021 026a 00       		.byte	0
 1022 026b 41       		.byte	65
 1023 026c 0C       		.byte	12
 1024 026d 67       		.byte	103
 1025 026e 00       		.byte	0
 1026 026f 18       		.byte	24
 1027 0270 41       		.byte	65
 1028 0271 00       		.byte	0
 1029 0272 00       		.byte	0
 1030 0273 00       		.byte	0
 1031 0274 C0       		.byte	-64
 1032 0275 1F       		.byte	31
 1033 0276 2C       		.byte	44
 1034 0277 00       		.byte	0
 1035 0278 0F       		.byte	15
 1036 0279 20       		.byte	32
 1037 027a 1C       		.byte	28
 1038 027b 40       		.byte	64
 1039 027c 00       		.byte	0
 1040 027d 80       		.byte	-128
 1041 027e 28       		.byte	40
 1042 027f 0A       		.byte	10
 1043 0280 00       		.byte	0
 1044 0281 00       		.byte	0
 1045 0282 00       		.byte	0
 1046 0283 10       		.byte	16
 1047 0284 62       		.byte	98
 1048 0285 03       		.byte	3
 1049 0286 04       		.byte	4
 1050 0287 00       		.byte	0
 1051 0288 01       		.byte	1
 1052 0289 0E       		.byte	14
 1053 028a 00       		.byte	0
 1054 028b C0       		.byte	-64
 1055 028c 21       		.byte	33
 1056 028d FF       		.byte	-1
 1057 028e FF       		.byte	-1
 1058 028f FF       		.byte	-1
 1059 0290 62       		.byte	98
 1060 0291 A0       		.byte	-96
 1061 0292 F0       		.byte	-16
ARM GAS  C:\Users\DJSCE~1.STU\AppData\Local\Temp\ccH541Pm.s 			page 31


 1062 0293 41       		.byte	65
 1063 0294 0C       		.byte	12
 1064 0295 00       		.byte	0
 1065 0296 00       		.byte	0
 1066 0297 00       		.byte	0
 1067 0298 00       		.byte	0
 1068 0299 00       		.byte	0
 1069 029a 02       		.byte	2
 1070 029b 11       		.byte	17
 1071 029c 04       		.byte	4
 1072 029d 04       		.byte	4
 1073 029e 04       		.byte	4
 1074 029f 04       		.byte	4
 1075 02a0 00       		.byte	0
 1076 02a1 00       		.byte	0
 1077 02a2 00       		.byte	0
 1078 02a3 01       		.byte	1
 1079 02a4 00       		.byte	0
 1080 02a5 00       		.byte	0
 1081 02a6 00       		.byte	0
 1082 02a7 00       		.byte	0
 1083 02a8 00       		.byte	0
 1084 02a9 00       		.byte	0
 1085 02aa 40       		.byte	64
 1086 02ab 02       		.byte	2
 1087 02ac 00       		.byte	0
 1088 02ad 10       		.byte	16
 1089 02ae 30       		.byte	48
 1090 02af 10       		.byte	16
 1091 02b0 00       		.byte	0
 1092 02b1 10       		.byte	16
 1093 02b2 10       		.byte	16
 1094 02b3 12       		.byte	18
 1095 02b4 00       		.byte	0
 1096 02b5 00       		.byte	0
 1097 02b6 00       		.byte	0
 1098 02b7 00       		.byte	0
 1099 02b8 00       		.byte	0
 1100 02b9 00       		.byte	0
 1101 02ba 00       		.byte	0
 1102 02bb 00       		.byte	0
 1103 02bc 00       		.byte	0
 1104 02bd 00       		.byte	0
 1105 02be 00       		.byte	0
 1106 02bf 00       		.byte	0
 1107 02c0 00       		.byte	0
 1108 02c1 00       		.byte	0
 1109 02c2 00       		.byte	0
 1110 02c3 00       		.byte	0
 1111              		.text
 1112              	.Letext0:
 1113              		.file 2 "c:\\program files\\cypress\\psoc creator\\3.2\\psoc creator\\import\\gnu\\arm\\4.8.4\\lib
 1114              		.file 3 ".\\Generated_Source\\PSoC4\\cytypes.h"
 1115              		.file 4 ".\\Generated_Source\\PSoC4\\CyLib.h"